
DE2_70_Viola-Jones.elf:     file format elf32-littlenios2
DE2_70_Viola-Jones.elf
architecture: nios2, flags 0x00000112:
EXEC_P, HAS_SYMS, D_PAGED
start address 0x000001b4

Program Header:
    LOAD off    0x00001000 vaddr 0x00000000 paddr 0x00000000 align 2**12
         filesz 0x00000020 memsz 0x00000020 flags r-x
    LOAD off    0x00001020 vaddr 0x00000020 paddr 0x00000020 align 2**12
         filesz 0x0001f2cc memsz 0x0001f2cc flags r-x
    LOAD off    0x000202ec vaddr 0x0001f2ec paddr 0x00020e38 align 2**12
         filesz 0x00001b4c memsz 0x00001b4c flags rw-
    LOAD off    0x00022984 vaddr 0x00022984 paddr 0x00022984 align 2**12
         filesz 0x00000000 memsz 0x00000b40 flags rw-

Sections:
Idx Name          Size      VMA       LMA       File off  Algn
  0 .entry        00000020  00000000  00000000  00001000  2**5
                  CONTENTS, ALLOC, LOAD, READONLY, CODE
  1 .exceptions   00000194  00000020  00000020  00001020  2**2
                  CONTENTS, ALLOC, LOAD, READONLY, CODE
  2 .text         0001e45c  000001b4  000001b4  000011b4  2**2
                  CONTENTS, ALLOC, LOAD, READONLY, CODE
  3 .rodata       00000cdc  0001e610  0001e610  0001f610  2**2
                  CONTENTS, ALLOC, LOAD, READONLY, DATA
  4 .rwdata       00001b4c  0001f2ec  00020e38  000202ec  2**2
                  CONTENTS, ALLOC, LOAD, DATA, SMALL_DATA
  5 .bss          00000b40  00022984  00022984  00022984  2**2
                  ALLOC, SMALL_DATA
  6 .comment      00000026  00000000  00000000  00021e38  2**0
                  CONTENTS, READONLY
  7 .debug_aranges 000021e8  00000000  00000000  00021e60  2**3
                  CONTENTS, READONLY, DEBUGGING
  8 .debug_pubnames 0000ba3e  00000000  00000000  00024048  2**0
                  CONTENTS, READONLY, DEBUGGING
  9 .debug_info   0006849a  00000000  00000000  0002fa86  2**0
                  CONTENTS, READONLY, DEBUGGING
 10 .debug_abbrev 00010379  00000000  00000000  00097f20  2**0
                  CONTENTS, READONLY, DEBUGGING
 11 .debug_line   00028b10  00000000  00000000  000a8299  2**0
                  CONTENTS, READONLY, DEBUGGING
 12 .debug_frame  00006000  00000000  00000000  000d0dac  2**2
                  CONTENTS, READONLY, DEBUGGING
 13 .debug_str    000092bc  00000000  00000000  000d6dac  2**0
                  CONTENTS, READONLY, DEBUGGING
 14 .debug_loc    000191e9  00000000  00000000  000e0068  2**0
                  CONTENTS, READONLY, DEBUGGING
 15 .debug_alt_sim_info 00000030  00000000  00000000  000f9254  2**2
                  CONTENTS, READONLY, DEBUGGING
 16 .debug_ranges 000033b0  00000000  00000000  000f9288  2**3
                  CONTENTS, READONLY, DEBUGGING
 17 .thread_model 00000003  00000000  00000000  00107922  2**0
                  CONTENTS, READONLY
 18 .cpu          0000000f  00000000  00000000  00107925  2**0
                  CONTENTS, READONLY
 19 .qsys         00000001  00000000  00000000  00107934  2**0
                  CONTENTS, READONLY
 20 .simulation_enabled 00000001  00000000  00000000  00107935  2**0
                  CONTENTS, READONLY
 21 .stderr_dev   00000009  00000000  00000000  00107936  2**0
                  CONTENTS, READONLY
 22 .stdin_dev    00000009  00000000  00000000  0010793f  2**0
                  CONTENTS, READONLY
 23 .stdout_dev   00000009  00000000  00000000  00107948  2**0
                  CONTENTS, READONLY
 24 .sopc_system_name 00000006  00000000  00000000  00107951  2**0
                  CONTENTS, READONLY
 25 .quartus_project_dir 00000037  00000000  00000000  00107957  2**0
                  CONTENTS, READONLY
 26 .sopcinfo     00075817  00000000  00000000  0010798e  2**0
                  CONTENTS, READONLY
SYMBOL TABLE:
00000000 l    d  .entry	00000000 .entry
00000020 l    d  .exceptions	00000000 .exceptions
000001b4 l    d  .text	00000000 .text
0001e610 l    d  .rodata	00000000 .rodata
0001f2ec l    d  .rwdata	00000000 .rwdata
00022984 l    d  .bss	00000000 .bss
00000000 l    d  .comment	00000000 .comment
00000000 l    d  .debug_aranges	00000000 .debug_aranges
00000000 l    d  .debug_pubnames	00000000 .debug_pubnames
00000000 l    d  .debug_info	00000000 .debug_info
00000000 l    d  .debug_abbrev	00000000 .debug_abbrev
00000000 l    d  .debug_line	00000000 .debug_line
00000000 l    d  .debug_frame	00000000 .debug_frame
00000000 l    d  .debug_str	00000000 .debug_str
00000000 l    d  .debug_loc	00000000 .debug_loc
00000000 l    d  .debug_alt_sim_info	00000000 .debug_alt_sim_info
00000000 l    d  .debug_ranges	00000000 .debug_ranges
000001fc l       .text	00000000 alt_after_alt_main
00000000 l    df *ABS*	00000000 alt_irq_handler.c
00000000 l    df *ABS*	00000000 image.c
00000000 l    df *ABS*	00000000 stdio-wrapper.c
00000000 l    df *ABS*	00000000 haar.cpp
00022994 l     O .bss	00000004 rectangles_array
00022998 l     O .bss	00000004 scaled_rectangles_array
00022990 l     O .bss	00000004 stages_array
000229a0 l     O .bss	00000004 tree_thresh_array
0002299c l     O .bss	00000004 weights_array
000229a8 l     O .bss	00000004 alpha2_array
000229a4 l     O .bss	00000004 alpha1_array
000229ac l     O .bss	00000004 stages_thresh_array
00000000 l    df *ABS*	00000000 main.cpp
00000000 l    df *ABS*	00000000 rectangles.cpp
00000000 l    df *ABS*	00000000 functexcept.cc
00000000 l    df *ABS*	00000000 ios_failure.cc
00000000 l    df *ABS*	00000000 stdexcept.cc
00000000 l    df *ABS*	00000000 string-inst.cc
00000000 l    df *ABS*	00000000 atomicity.cc
00000000 l    df *ABS*	00000000 bad_typeid.cc
00000000 l    df *ABS*	00000000 eh_throw.cc
0000dc10 l     F .text	00000060 _Z23__gxx_exception_cleanup19_Unwind_Reason_CodeP17_Unwind_Exception
00000000 l    df *ABS*	00000000 eh_term_handler.cc
00000000 l    df *ABS*	00000000 eh_catch.cc
00000000 l    df *ABS*	00000000 del_op.cc
00000000 l    df *ABS*	00000000 eh_unex_handler.cc
00000000 l    df *ABS*	00000000 eh_personality.cc
0000de60 l     F .text	00000030 _Z12read_uleb128PKhPj
0000de90 l     F .text	00000054 _Z12read_sleb128PKhPi
0000dee4 l     F .text	0000009c _Z16get_adjusted_ptrPKSt9type_infoS1_PPv
0000df80 l     F .text	000001d4 _Z28read_encoded_value_with_basehjPKhPj
0000e154 l     F .text	00000090 _Z21base_of_encoded_valuehP15_Unwind_Context
0000e1e4 l     F .text	00000100 _Z17parse_lsda_headerP15_Unwind_ContextPKhP16lsda_header_info
0000e2e4 l     F .text	00000084 _Z15get_ttype_entryP16lsda_header_infoj
0000e368 l     F .text	00000084 _Z20check_exception_specP16lsda_header_infoPKSt9type_infoPvi
00000000 l    df *ABS*	00000000 bad_cast.cc
00000000 l    df *ABS*	00000000 si_class_type_info.cc
00000000 l    df *ABS*	00000000 eh_globals.cc
000229b4 l     O .bss	00000008 eh_globals
00000000 l    df *ABS*	00000000 eh_terminate.cc
00000000 l    df *ABS*	00000000 new_op.cc
00000000 l    df *ABS*	00000000 eh_call.cc
00000000 l    df *ABS*	00000000 eh_exception.cc
00000000 l    df *ABS*	00000000 new_handler.cc
00000000 l    df *ABS*	00000000 eh_alloc.cc
00022a0c l     O .bss	00000800 emergency_buffer
000229c0 l     O .bss	00000004 emergency_used
00000000 l    df *ABS*	00000000 tinfo.cc
00000000 l    df *ABS*	00000000 class_type_info.cc
00000000 l    df *ABS*	00000000 fp-bit.c
0000f344 l     F .text	000001e4 _fpadd_parts
00000000 l    df *ABS*	00000000 fp-bit.c
00000000 l    df *ABS*	00000000 fp-bit.c
00000000 l    df *ABS*	00000000 fp-bit.c
00000000 l    df *ABS*	00000000 fp-bit.c
00000000 l    df *ABS*	00000000 fp-bit.c
00000000 l    df *ABS*	00000000 fp-bit.c
00000000 l    df *ABS*	00000000 fp-bit.c
00000000 l    df *ABS*	00000000 fp-bit.c
00000000 l    df *ABS*	00000000 dp-bit.c
0000fbc0 l     F .text	00000410 _fpadd_parts
00000000 l    df *ABS*	00000000 dp-bit.c
00000000 l    df *ABS*	00000000 dp-bit.c
00000000 l    df *ABS*	00000000 dp-bit.c
00000000 l    df *ABS*	00000000 dp-bit.c
00000000 l    df *ABS*	00000000 dp-bit.c
00000000 l    df *ABS*	00000000 dp-bit.c
00000000 l    df *ABS*	00000000 lib2-divmod.c
00010718 l     F .text	0000007c udivmodsi4
00000000 l    df *ABS*	00000000 unwind-sjlj.c
000229c4 l     O .bss	00000004 fc_static
00010924 l     F .text	00000100 _Unwind_ForcedUnwind_Phase2
00010a3c l     F .text	000000cc _Unwind_RaiseException_Phase2
00010b08 l     F .text	00000028 uw_install_context
00000000 l    df *ABS*	00000000 libgcc2.c
00000000 l    df *ABS*	00000000 libgcc2.c
00000000 l    df *ABS*	00000000 fp-bit.c
00000000 l    df *ABS*	00000000 fp-bit.c
00000000 l    df *ABS*	00000000 fp-bit.c
00000000 l    df *ABS*	00000000 dp-bit.c
00000000 l    df *ABS*	00000000 dp-bit.c
00000000 l    df *ABS*	00000000 dp-bit.c
00000000 l    df *ABS*	00000000 libgcc2.c
00000000 l    df *ABS*	00000000 abort.c
00000000 l    df *ABS*	00000000 atoi.c
00000000 l    df *ABS*	00000000 fclose.c
00000000 l    df *ABS*	00000000 fflush.c
00000000 l    df *ABS*	00000000 fgets.c
00000000 l    df *ABS*	00000000 findfp.c
00011b98 l     F .text	00000058 std
00011ca4 l     F .text	00000008 __fp_lock
00011cac l     F .text	00000008 __fp_unlock
00000000 l    df *ABS*	00000000 fopen.c
00000000 l    df *ABS*	00000000 fputc.c
00000000 l    df *ABS*	00000000 fputs.c
00000000 l    df *ABS*	00000000 mallocr.c
00000000 l    df *ABS*	00000000 fseek.c
00000000 l    df *ABS*	00000000 fstatr.c
00000000 l    df *ABS*	00000000 fvwrite.c
00000000 l    df *ABS*	00000000 fwalk.c
00000000 l    df *ABS*	00000000 impure.c
0001f2ec l     O .rwdata	00000400 impure_data
00000000 l    df *ABS*	00000000 int_errno.c
00000000 l    df *ABS*	00000000 makebuf.c
00000000 l    df *ABS*	00000000 malloc.c
00000000 l    df *ABS*	00000000 mallocr.c
00000000 l    df *ABS*	00000000 memchr.c
00000000 l    df *ABS*	00000000 memcmp.c
00000000 l    df *ABS*	00000000 memcpy.c
00000000 l    df *ABS*	00000000 memmove.c
00000000 l    df *ABS*	00000000 memset.c
00000000 l    df *ABS*	00000000 openr.c
00000000 l    df *ABS*	00000000 printf.c
00000000 l    df *ABS*	00000000 putc.c
00000000 l    df *ABS*	00000000 puts.c
00000000 l    df *ABS*	00000000 mallocr.c
00000000 l    df *ABS*	00000000 refill.c
00014798 l     F .text	0000001c lflush
00000000 l    df *ABS*	00000000 sbrkr.c
00000000 l    df *ABS*	00000000 signal.c
00000000 l    df *ABS*	00000000 signalr.c
00000000 l    df *ABS*	00000000 stdio.c
00000000 l    df *ABS*	00000000 strlen.c
00000000 l    df *ABS*	00000000 strtol.c
00000000 l    df *ABS*	00000000 vfprintf.c
00014f9c l     F .text	00000058 __sprint_r
0001ee96 l     O .rodata	00000010 blanks.3452
0001ee86 l     O .rodata	00000010 zeroes.3453
00000000 l    df *ABS*	00000000 wbuf.c
00000000 l    df *ABS*	00000000 writer.c
00000000 l    df *ABS*	00000000 wsetup.c
00000000 l    df *ABS*	00000000 closer.c
00000000 l    df *ABS*	00000000 ctype_.c
0001efa7 l     O .rodata	00000180 _ctype_b
00000000 l    df *ABS*	00000000 dtoa.c
00017234 l     F .text	00000218 quorem
00000000 l    df *ABS*	00000000 flags.c
00000000 l    df *ABS*	00000000 isattyr.c
00000000 l    df *ABS*	00000000 locale.c
00020dc4 l     O .rwdata	00000004 charset
0001f148 l     O .rodata	00000030 lconv
00000000 l    df *ABS*	00000000 lseekr.c
00000000 l    df *ABS*	00000000 mprec.c
0001f290 l     O .rodata	0000000c p05.2458
00000000 l    df *ABS*	00000000 readr.c
00000000 l    df *ABS*	00000000 s_isinfd.c
00000000 l    df *ABS*	00000000 s_isnand.c
00000000 l    df *ABS*	00000000 strcmp.c
00000000 l    df *ABS*	00000000 mallocr.c
00000000 l    df *ABS*	00000000 libgcc2.c
00000000 l    df *ABS*	00000000 libgcc2.c
00000000 l    df *ABS*	00000000 dp-bit.c
00000000 l    df *ABS*	00000000 dp-bit.c
00000000 l    df *ABS*	00000000 dp-bit.c
00000000 l    df *ABS*	00000000 dp-bit.c
00000000 l    df *ABS*	00000000 dp-bit.c
00000000 l    df *ABS*	00000000 dp-bit.c
00000000 l    df *ABS*	00000000 alt_close.c
0001b12c l     F .text	00000060 alt_get_errno
00000000 l    df *ABS*	00000000 alt_dev.c
0001b18c l     F .text	0000002c alt_dev_null_write
00000000 l    df *ABS*	00000000 alt_errno.c
00000000 l    df *ABS*	00000000 alt_exit.c
0001b1b8 l     F .text	00000040 alt_sim_halt
00000000 l    df *ABS*	00000000 alt_fstat.c
0001b2ec l     F .text	00000060 alt_get_errno
00000000 l    df *ABS*	00000000 alt_getpid.c
00000000 l    df *ABS*	00000000 alt_isatty.c
0001b42c l     F .text	00000060 alt_get_errno
00000000 l    df *ABS*	00000000 alt_kill.c
0001b5cc l     F .text	00000060 alt_get_errno
00000000 l    df *ABS*	00000000 alt_load.c
0001b6ac l     F .text	0000006c alt_load_section
00000000 l    df *ABS*	00000000 alt_lseek.c
0001b808 l     F .text	00000060 alt_get_errno
00000000 l    df *ABS*	00000000 alt_main.c
00000000 l    df *ABS*	00000000 alt_malloc_lock.c
00000000 l    df *ABS*	00000000 alt_open.c
0001b914 l     F .text	000000dc alt_file_locked
0001bb78 l     F .text	00000060 alt_get_errno
00000000 l    df *ABS*	00000000 alt_read.c
0001bcf8 l     F .text	00000060 alt_get_errno
00000000 l    df *ABS*	00000000 alt_release_fd.c
00000000 l    df *ABS*	00000000 alt_sbrk.c
00020de0 l     O .rwdata	00000004 heap_end
00000000 l    df *ABS*	00000000 alt_write.c
0001bf94 l     F .text	00000060 alt_get_errno
00000000 l    df *ABS*	00000000 alt_sys_init.c
0001fca8 l     O .rwdata	00001060 jtag_uart
00020d08 l     O .rwdata	00000028 altera_hostfs
00020d30 l     O .rwdata	00000054 Pixel_Buffer_DMA
0001c270 l     F .text	00000038 alt_dev_reg
00000000 l    df *ABS*	00000000 altera_avalon_jtag_uart_fd.c
00000000 l    df *ABS*	00000000 altera_avalon_jtag_uart_init.c
0001c4b0 l     F .text	00000228 altera_avalon_jtag_uart_irq
0001c6d8 l     F .text	000000b0 altera_avalon_jtag_uart_timeout
00000000 l    df *ABS*	00000000 altera_avalon_jtag_uart_ioctl.c
00000000 l    df *ABS*	00000000 altera_avalon_jtag_uart_read.c
00000000 l    df *ABS*	00000000 altera_avalon_jtag_uart_write.c
00000000 l    df *ABS*	00000000 altera_hostfs.c
00020de4 l     O .rwdata	00000004 hcinfo.2234
00020df0 l     O .rwdata	00000004 hcinfo.2276
00020dfc l     O .rwdata	00000004 hcinfo.2289
00020e08 l     O .rwdata	00000004 hcinfo.2311
00020e14 l     O .rwdata	00000004 hcinfo.2333
00020e20 l     O .rwdata	00000004 hcinfo.2368
00000000 l    df *ABS*	00000000 alt_alarm_start.c
00000000 l    df *ABS*	00000000 alt_dcache_flush_all.c
00000000 l    df *ABS*	00000000 alt_dev_llist_insert.c
0001d540 l     F .text	00000060 alt_get_errno
00000000 l    df *ABS*	00000000 alt_do_ctors.c
00000000 l    df *ABS*	00000000 alt_do_dtors.c
00000000 l    df *ABS*	00000000 alt_find_dev.c
00000000 l    df *ABS*	00000000 alt_find_file.c
00000000 l    df *ABS*	00000000 alt_fs_reg.c
00000000 l    df *ABS*	00000000 alt_get_fd.c
00000000 l    df *ABS*	00000000 alt_icache_flush_all.c
00000000 l    df *ABS*	00000000 alt_iic.c
00000000 l    df *ABS*	00000000 alt_iic_isr_register.c
00000000 l    df *ABS*	00000000 alt_io_redirect.c
0001dc60 l     F .text	000000c4 alt_open_fd
00000000 l    df *ABS*	00000000 alt_irq_vars.c
00000000 l    df *ABS*	00000000 alt_tick.c
00000000 l    df *ABS*	00000000 altera_nios2_qsys_irq.c
00000000 l    df *ABS*	00000000 alt_icache_flush.c
00000000 l    df *ABS*	00000000 atexit.c
00000000 l    df *ABS*	00000000 exit.c
00000000 l    df *ABS*	00000000 __atexit.c
00000000 l    df *ABS*	00000000 __call_atexit.c
0001e170 l     F .text	00000004 register_fini
0000cfd4  w    F .text	0000005c _ZNSs2atEm
0000efbc g     F .text	00000040 __cxa_free_exception
0000b970  w    F .text	00000034 _ZNSsC1IN9__gnu_cxx17__normal_iteratorIPcSsEEEET_S4_RKSaIcE
0000f138 g     F .text	00000008 _ZNKSt9type_info15__is_function_pEv
00019058 g     F .text	00000094 _mprec_log10
00002c80  w    F .text	00000044 _ZNKSt6vectorI6MyRectSaIS0_EE3endEv
0000ed6c g     F .text	00000018 _ZSt10unexpectedv
000079e0 g     F .text	00000034 _ZSt18__throw_bad_typeidv
00019144 g     F .text	00000088 __any_on
00018aa0 g     F .text	00000070 _isatty_r
0001f268 g     O .rodata	00000028 __mprec_tinytens
0000927c g     F .text	00000030 _ZNSt14overflow_errorC1ERKSs
0001b868 g     F .text	0000006c alt_main
00003004  w    F .text	0000003c _ZSt8_DestroyIP6MyRectS0_EvT_S2_SaIT0_E
00000910 g     F .text	0000007c createSumImage
0000b494  w    F .text	00000040 _ZNKSs6substrEmm
000005ec g     F .text	00000194 writePgm
00013f2c g     F .text	000000a0 _puts_r
00023234 g     O .bss	00000100 alt_irq
00020d84  w    O .rwdata	00000004 _ZNSs4nposE
00018bd4 g     F .text	00000078 _lseek_r
000108d4 g     F .text	00000014 _Unwind_GetIPInfo
00020e38 g       *ABS*	00000000 __flash_rwdata_start
00005da0  w    F .text	00000058 _ZNSt6vectorIiSaIiEEixEm
00018a00 g     F .text	000000a0 __sflags
0001ac7c g     F .text	00000088 __eqdf2
00006e64  w    F .text	000000b8 _ZNSt6vectorIiSaIiEE5eraseEN9__gnu_cxx17__normal_iteratorIPiS1_EES5_
0000db28 g     F .text	00000074 __cxa_rethrow
0000667c  w    F .text	00000044 _ZSt20uninitialized_fill_nIN9__gnu_cxx17__normal_iteratorIPiSt6vectorIiSaIiEEEEmiEvT_T0_RKT1_
000043cc  w    F .text	000002a0 _ZNSt6vectorI6MyRectSaIS0_EEaSERKS2_
00010874 g     F .text	0000000c _Unwind_SjLj_Unregister
0000ab18  w    F .text	00000018 _ZNKSs6rbeginEv
0000ec8c g     F .text	00000014 _ZSt14set_unexpectedPFvvE
0000b888  w    F .text	000000b4 _ZNSs12_S_constructIN9__gnu_cxx17__normal_iteratorIPcSsEEEES2_T_S4_RKSaIcESt20forward_iterator_tag
0000b5f4  w    F .text	00000020 _ZNSs13_S_copy_charsEPcN9__gnu_cxx17__normal_iteratorIS_SsEES2_
0000da04  w    F .text	00000024 _ZNSs7replaceEmmRKSs
000108c4 g     F .text	00000010 _Unwind_GetIP
000234c4 g       *ABS*	00000000 __alt_heap_start
000094fc g     F .text	00000030 _ZNSt12length_errorC1ERKSs
00014b00 g     F .text	00000074 _kill_r
0000d0b0  w    F .text	00000038 _ZNSs5beginEv
0000efac g     F .text	00000010 _ZNSt9bad_allocD2Ev
00013cc8 g     F .text	00000044 printf
0000eb6c g     F .text	00000034 _ZNK10__cxxabiv120__si_class_type_info20__do_find_public_srcElPKvPKNS_17__class_type_infoES2_
00014a40 g     F .text	000000a0 _signal_r
000046b4 g     F .text	00000048 _Z5myMinii
0001e800  w    O .rodata	00000013 _ZTSSt14overflow_error
00014b7c g     F .text	00000068 __sseek
00011c00 g     F .text	000000a4 __sinit
000030e4  w    F .text	0000009c _ZNSt15__copy_backwardILb0ESt26random_access_iterator_tagE6copy_bIP6MyRectS4_EET0_T_S6_S5_
00016ec4 g     F .text	00000130 __swbuf_r
000063ac  w    F .text	00000044 _ZSt20uninitialized_fill_nIPimiEvT_T0_RKT1_
0000c7b0  w    F .text	000000f8 _ZNSs6assignEPKcm
0000eb5c g     F .text	00000010 _ZN10__cxxabiv120__si_class_type_infoD2Ev
00018b34 g     F .text	00000084 _setlocale_r
0001ebb4  w    O .rodata	00000025 _ZTSN10__cxxabiv120__si_class_type_infoE
00011d00 g     F .text	00000068 __sfmoreglue
00002570  w    F .text	000003e4 _Z18evalWeakClassifieriiiii
0001b8f4 g     F .text	00000020 __malloc_unlock
00009fe8  w    F .text	00000018 _ZNSs7_M_moveEPcPKcm
0001cd54 g     F .text	00000154 alt_hostfs_open
00022984 g     O .bss	00000004 clock_counter
0000da58  w    F .text	00000064 _ZNSs7replaceEN9__gnu_cxx17__normal_iteratorIPcSsEES2_PKc
0000dc78 g     F .text	00000020 _ZSt18uncaught_exceptionv
0000f7dc g     F .text	00000174 __divsf3
0001e7c0  w    O .rodata	0000000c _ZTISt15underflow_error
000062b4  w    F .text	0000006c _ZNSt8__fill_nILb1EE6fill_nIPimiEET_S3_T0_RKT1_
0000c420  w    F .text	000000bc _ZNSsD2Ev
0000c2d8  w    F .text	0000008c _ZNSspLEc
0000bec4  w    F .text	000000e0 _ZNSs6appendEmc
00013ad8 g     F .text	000000e0 memmove
0000eef8 g     F .text	00000010 _ZNSt9exceptionD2Ev
00011cf0 g     F .text	00000010 _cleanup
000191cc g     F .text	000000bc _Balloc
0000fad8 g     F .text	00000094 __fixsfsi
00006214  w    F .text	00000028 _ZSt13__destroy_auxIN9__gnu_cxx17__normal_iteratorIPiSt6vectorIiSaIiEEEEEvT_S7_11__true_type
0000b868  w    F .text	00000020 _ZNSs13_S_copy_charsEPcN9__gnu_cxx17__normal_iteratorIPKcSsEES4_
0001e864  w    O .rodata	00000011 _ZTSSt12out_of_range
00003180  w    F .text	00000044 _ZSt19__copy_backward_auxIP6MyRectS1_ET0_T_S3_S2_
0001eb7c  w    O .rodata	0000000c _ZTISt8bad_cast
00006530  w    F .text	00000048 _ZSt4fillIN9__gnu_cxx17__normal_iteratorIPiSt6vectorIiSaIiEEEEiEvT_S7_RKT0_
0000a000  w    F .text	00000018 _ZNSs7_M_copyEPcPKcm
0000c938  w    F .text	00000040 _ZNSsaSEPKc
0000dabc g     F .text	00000014 _ZN9__gnu_cxx18__exchange_and_addEPVii
00007ab0 g     F .text	00000108 _ZSt19__throw_ios_failurePKc
0001ad8c g     F .text	00000088 __gtdf2
0001ebe8  w    O .rodata	00000014 _ZTVSt13bad_exception
00000000  w      *UND*	00000000 __errno
00008a0c  w    F .text	00000034 _ZNSt14overflow_errorD0Ev
00000000 g     F .entry	0000001c __reset
00020d8c  w    O .rwdata	00000001 _ZNSs4_Rep11_S_terminalE
0000a7b0  w    F .text	000000e0 _ZNKSs16find_last_not_ofEPKcmm
000059a8  w    F .text	00000024 _ZNSt12_Vector_baseIiSaIiEE19_M_get_Tp_allocatorEv
00005e34  w    F .text	00000028 _ZSt13__destroy_auxIPiEvT_S1_11__true_type
00010904 g     F .text	00000008 _Unwind_GetRegionStart
0000726c  w    F .text	00000044 _ZSt22__uninitialized_copy_aIN9__gnu_cxx17__normal_iteratorIPiSt6vectorIiSaIiEEEES2_iET0_T_S8_S7_SaIT1_E
00000020 g       *ABS*	00000000 __flash_exceptions_start
000072b0  w    F .text	0000008c _ZNSt15__copy_backwardILb1ESt26random_access_iterator_tagE6copy_bIiEEPT_PKS3_S6_S4_
00012954 g     F .text	00000074 _fstat_r
0000ed84 g     F .text	00000100 _Znwm
0000a550  w    F .text	00000064 _ZNSs4_Rep10_M_disposeERKSaIcE
000229c8 g     O .bss	00000004 errno
000106e0 g     F .text	00000038 __make_dp
0000ac2c  w    F .text	0000003c _ZNSsC2EmcRKSaIcE
0000a94c  w    F .text	0000007c _ZNKSs7compareEPKc
0000b9a4  w    F .text	000000fc _ZNSsC1ERKSs
00002dc8  w    F .text	00000024 _ZNK9__gnu_cxx17__normal_iteratorIP6MyRectSt6vectorIS1_SaIS1_EEE4baseEv
000064bc  w    F .text	00000074 _ZNSt6__fillILb1EE4fillIN9__gnu_cxx17__normal_iteratorIPiSt6vectorIiSaIiEEEEiEEvT_S9_RKT0_
00010cd4 g     F .text	00000080 _Unwind_Backtrace
0000b128  w    F .text	00000088 _ZNKSs4copyEPcmm
000229e8 g     O .bss	00000004 alt_argv
00005fd4  w    F .text	00000050 _ZSt3maxImERKT_S2_S2_
00028d84 g       *ABS*	00000000 _gp
0000dad4 g     F .text	00000034 _ZNSt10bad_typeidD0Ev
0000f528 g     F .text	00000070 __subsf3
00008a40  w    F .text	00000010 _ZNSt14overflow_errorD1Ev
00004b08 g     F .text	000005d4 _Z9partitionRSt6vectorI6MyRectSaIS0_EERS_IiSaIiEEf
0000ea4c g     F .text	00000034 _ZNSt8bad_castD0Ev
0001b34c g     F .text	00000020 getpid
00006e14  w    F .text	00000050 _ZSt4copyIN9__gnu_cxx17__normal_iteratorIPiSt6vectorIiSaIiEEEES6_ET0_T_S8_S7_
0000cb6c  w    F .text	00000038 _ZNSs6assignEmc
00007408  w    F .text	00000050 _ZSt13copy_backwardIN9__gnu_cxx17__normal_iteratorIPiSt6vectorIiSaIiEEEES6_ET0_T_S8_S7_
00009cf0  w    F .text	0000000c _ZNKSs4_Rep12_M_is_leakedEv
0000e3ec g     F .text	00000180 __cxa_call_unexpected
000039c0  w    F .text	00000060 _ZNSt12_Vector_baseI6MyRectSaIS0_EED2Ev
0000dc70 g     F .text	00000008 __cxa_get_exception_ptr
00011b74 g     F .text	00000024 fgets
000071e4  w    F .text	00000044 _ZSt24__uninitialized_copy_auxIN9__gnu_cxx17__normal_iteratorIPiSt6vectorIiSaIiEEEES2_ET0_T_S8_S7_11__true_type
000004c4 g     F .text	00000128 readImage
0000337c  w    F .text	00000044 _ZSt18uninitialized_copyIN9__gnu_cxx17__normal_iteratorIP6MyRectSt6vectorIS2_SaIS2_EEEES7_ET0_T_S9_S8_
000029a4  w    F .text	00000020 _ZN9__gnu_cxx13new_allocatorI6MyRectED2Ev
0000a020  w    F .text	0000000c _ZNKSsixEm
0001fb28 g     O .rwdata	00000180 alt_fd_list
000032e8  w    F .text	00000094 _ZSt24__uninitialized_copy_auxIN9__gnu_cxx17__normal_iteratorIP6MyRectSt6vectorIS2_SaIS2_EEEES7_ET0_T_S9_S8_12__false_type
0001d03c g     F .text	000000a0 alt_hostfs_seek
00005bcc  w    F .text	00000044 _ZNKSt6vectorIiSaIiEE5beginEv
0001e878  w    O .rodata	00000014 _ZTVSt12out_of_range
00010c84 g     F .text	00000050 _Unwind_SjLj_ForcedUnwind
0000360c  w    F .text	0000032c _ZNSt6vectorI6MyRectSaIS0_EE13_M_insert_auxEN9__gnu_cxx17__normal_iteratorIPS0_S2_EERKS0_
00010898 g     F .text	00000014 _Unwind_GetCFA
0000ec78 g     F .text	00000014 _ZSt13set_terminatePFvvE
0001d668 g     F .text	00000094 alt_find_dev
00013a38 g     F .text	000000a0 memcpy
0000a2cc  w    F .text	00000010 _ZNSsC2Ev
000031c4  w    F .text	00000084 _ZNSt22__copy_backward_normalILb1ELb1EE8copy_b_nIN9__gnu_cxx17__normal_iteratorIP6MyRectSt6vectorIS4_SaIS4_EEEES9_EET0_T_SB_SA_
0000a1bc  w    F .text	0000000c _ZNKSs17find_first_not_ofERKSsm
0000a02c  w    F .text	000000a4 _ZNKSs17find_first_not_ofEPKcmm
0000b774  w    F .text	00000034 _ZNSsC1IPKcEET_S2_RKSaIcE
00011ce4 g     F .text	0000000c _cleanup_r
00010510 g     F .text	000000f8 __floatsidf
0001d81c g     F .text	00000090 alt_fs_reg
0001dd24 g     F .text	00000078 alt_io_redirect
00010488 g     F .text	00000088 __ltdf2
0001e844  w    O .rodata	00000014 _ZTVSt11range_error
000097d8 g     F .text	00000104 _ZNSt13runtime_errorD2Ev
00008518 g     F .text	00000190 _ZSt21__throw_runtime_errorPKc
0001e610 g       *ABS*	00000000 __DTOR_END__
0000a270  w    F .text	00000050 _ZNKSs5rfindEPKcm
0000f248 g     F .text	00000010 _ZN10__cxxabiv117__class_type_infoD1Ev
000093ec g     F .text	000000b0 _ZNSt11logic_errorC2ERKSs
0001e8e4  w    O .rodata	00000014 _ZTVSt16invalid_argument
0000a2dc  w    F .text	00000010 _ZN9__gnu_cxxeqIPKcSsEEbRKNS_17__normal_iteratorIT_T0_EES8_
00013fcc g     F .text	00000014 puts
0000d200  w    F .text	00000150 _ZStplIcSt11char_traitsIcESaIcEESbIT_T0_T1_EPKS3_RKS6_
00002d08  w    F .text	00000034 _ZN9__gnu_cxx17__normal_iteratorIP6MyRectSt6vectorIS1_SaIS1_EEEC1ERKS2_
000033c0  w    F .text	00000044 _ZSt22__uninitialized_copy_aIN9__gnu_cxx17__normal_iteratorIP6MyRectSt6vectorIS2_SaIS2_EEEES7_S2_ET0_T_S9_S8_SaIT1_E
0000930c g     F .text	00000030 _ZNSt11range_errorC2ERKSs
00018fa8 g     F .text	000000b0 __ratio
0000bd10  w    F .text	00000004 _ZNSsaSERKSs
00002fc8  w    F .text	0000003c _ZSt8_DestroyIP6MyRectEvT_S2_
0001e858  w    O .rodata	0000000c _ZTISt12out_of_range
00009f58  w    F .text	00000038 _ZNKSs15_M_check_lengthEmmPKc
0000ab30  w    F .text	000000c0 _ZNSs12_S_constructEmcRKSaIcE
00006d90  w    F .text	00000084 _ZNSt13__copy_normalILb1ELb1EE6copy_nIN9__gnu_cxx17__normal_iteratorIPiSt6vectorIiSaIiEEEES8_EET0_T_SA_S9_
0001c8f0 g     F .text	00000224 altera_avalon_jtag_uart_read
0001318c g     F .text	00000014 malloc
00013d0c g     F .text	00000034 _printf_r
00010854 g     F .text	00000008 __udivsi3
0001b36c g     F .text	000000c0 isatty
00014824 g     F .text	000000cc _raise_r
0001f178 g     O .rodata	000000c8 __mprec_tens
0000c714  w    F .text	0000009c _ZNSs15_M_replace_safeEmmPKcm
00007ed8 g     F .text	00000190 _ZSt22__throw_overflow_errorPKc
00006070  w    F .text	00000070 _ZSt26__uninitialized_fill_n_auxIP6MyRectmS0_EvT_T0_RKT1_12__false_type
000094cc g     F .text	00000030 _ZNSt12out_of_rangeC2ERKSs
00018b10 g     F .text	00000008 __locale_charset
00006484  w    F .text	00000038 _ZN9__gnu_cxx17__normal_iteratorIPiSt6vectorIiSaIiEEEppEv
0000f9c8 g     F .text	00000078 __lesf2
000078d0  w    F .text	00000048 _ZNSt6vectorIiSaIiEE6insertEN9__gnu_cxx17__normal_iteratorIPiS1_EEmRKi
0000bd14  w    F .text	00000128 _ZNSs7reserveEm
00000200 g     F .text	00000114 strrev
0000ad60  w    F .text	000000c8 _ZNKSs7compareEmmPKc
0001df60 g     F .text	00000090 alt_icache_flush
00009ca8  w    F .text	0000000c _ZNKSs4sizeEv
000229cc g     O .bss	00000004 __malloc_top_pad
0000c4dc  w    F .text	00000238 _ZNSs9_M_mutateEmmm
0000d5e4  w    F .text	000002e0 _ZNSs7replaceEmmPKcm
0000a360  w    F .text	00000058 _ZNKSs16find_last_not_ofEcm
00014afc g     F .text	00000004 _getpid_r
00003a20  w    F .text	0000007c _ZNSt6vectorI6MyRectSaIS0_EED1Ev
0000d934  w    F .text	00000010 _ZNSs7replaceEN9__gnu_cxx17__normal_iteratorIPcSsEES2_PKcm
00020dc0 g     O .rwdata	00000004 __mb_cur_max
0000c0b0  w    F .text	00000040 _ZNSs6appendEPKc
00018b18 g     F .text	0000000c _localeconv_r
0000a3b8  w    F .text	00000064 _ZNKSs17find_first_not_ofEcm
00005e5c  w    F .text	0000003c _ZSt8_DestroyIPiEvT_S1_
000034e0  w    F .text	00000064 _ZN9__gnu_cxx13new_allocatorI6MyRectE8allocateEmPKv
000198c4 g     F .text	0000003c __i2b
000129c8 g     F .text	0000049c __sfvwrite_r
0000f268 g     F .text	00000060 _ZNK10__cxxabiv117__class_type_info10__do_catchEPKSt9type_infoPPvj
000046fc g     F .text	00000048 _Z5myAbsi
00014978 g     F .text	000000b4 __sigtramp_r
00009c28  w    F .text	00000008 _ZNKSs9_M_ibeginEv
0000916c g     F .text	000000b0 _ZNSt13runtime_errorC2ERKSs
00005a44  w    F .text	00000050 _ZNKSt6vectorI6MyRectSaIS0_EE5emptyEv
00007458  w    F .text	00000478 _ZNSt6vectorIiSaIiEE14_M_fill_insertEN9__gnu_cxx17__normal_iteratorIPiS1_EEmRKi
0000713c  w    F .text	0000005c _ZNSt13__copy_normalILb1ELb0EE6copy_nIN9__gnu_cxx17__normal_iteratorIPiSt6vectorIiSaIiEEEES4_EET0_T_SA_S9_
000147b4 g     F .text	00000070 _sbrk_r
0001cefc g     F .text	000000a0 alt_hostfs_read
0001ec70  w    O .rodata	00000020 _ZTVSt9type_info
0001e8cc  w    O .rodata	00000015 _ZTSSt16invalid_argument
00007a48 g     F .text	00000034 _ZSt17__throw_bad_allocv
00003ee4  w    F .text	00000058 _ZNKSt6vectorI6MyRectSaIS0_EE8capacityEv
00002e24  w    F .text	00000038 _ZNSt6vectorI6MyRectSaIS0_EE5beginEv
00009bf8  w    F .text	00000010 _ZNSt11char_traitsIcE2eqERKcS2_
00019c40 g     F .text	00000078 _read_r
0000eec8 g     F .text	00000010 _ZNKSt9exception4whatEv
0000a738  w    F .text	00000068 _ZNKSs4findEcm
00000a94 g     F .text	00000040 setSumImage
0001faf4 g     O .rwdata	0000000c __lc_ctype
00020dd8 g     O .rwdata	00000004 alt_max_fd
0000a9c8  w    F .text	00000050 _ZNKSs16find_last_not_ofEPKcm
000114a8 g     F .text	00000138 __unpack_d
0000a8fc  w    F .text	00000050 _ZNKSs4findEPKcm
000116d8 g     F .text	00000110 _fclose_r
0000aa68  w    F .text	00000050 _ZNKSs12find_last_ofEPKcm
0000a1c8  w    F .text	000000a8 _ZNKSs5rfindEPKcmm
0001ec64  w    O .rodata	0000000c _ZTISt9bad_alloc
00009c1c  w    F .text	0000000c _ZNKSs6_M_repEv
000119f8 g     F .text	00000034 fflush
00002ab8  w    F .text	00000030 _ZNSt12_Vector_baseI6MyRectSaIS0_EE12_Vector_implD1Ev
000229d0 g     O .bss	00000004 __malloc_max_sbrked_mem
0000089c g     F .text	00000074 createImage
0000cc74  w    F .text	00000050 _ZNSs5eraseEN9__gnu_cxx17__normal_iteratorIPcSsEE
0000d030  w    F .text	00000044 _ZNSsixEm
0000bb9c  w    F .text	00000174 _ZNSs6assignERKSs
0000fb6c g     F .text	00000054 __extendsfdf2
00005940  w    F .text	00000038 _ZNSaIiEC1ERKS_
00002e80  w    F .text	00000058 _ZN9__gnu_cxxmiIPK6MyRectS3_St6vectorIS1_SaIS1_EEEENS_17__normal_iteratorIT_T1_E15difference_typeERKSA_RKNS7_IT0_S9_EE
00010050 g     F .text	00000074 __adddf3
00005d44  w    F .text	0000005c _ZNK9__gnu_cxx17__normal_iteratorIPiSt6vectorIiSaIiEEEplERKl
0001eb88  w    O .rodata	0000002c _ZTVN10__cxxabiv120__si_class_type_infoE
00003040  w    F .text	00000028 _ZNK9__gnu_cxx13new_allocatorI6MyRectE8max_sizeEv
0000c364  w    F .text	000000bc _ZNSsD1Ev
00018e88 g     F .text	00000120 __b2d
00005b1c  w    F .text	00000038 _ZNSt6vectorIiSaIiEEC1ERKS0_
00002ae8  w    F .text	00000024 _ZNSt12_Vector_baseI6MyRectSaIS0_EE19_M_get_Tp_allocatorEv
0000ea80 g     F .text	00000010 _ZNSt8bad_castD1Ev
0001a474 g     F .text	000005b0 __umoddi3
0001b718 g     F .text	000000f0 lseek
0000d074  w    F .text	0000003c _ZNSs3endEv
0000f2c8 g     F .text	00000030 _ZNK10__cxxabiv117__class_type_info11__do_upcastEPKS0_PKvRNS0_15__upcast_resultE
0001e978  w    O .rodata	00000014 _ZTVSt11logic_error
0000de54 g     F .text	0000000c _ZdlPv
00008ad8  w    F .text	00000034 _ZNSt12length_errorD0Ev
00020db0 g     O .rwdata	00000004 _global_impure_ptr
00013fe0 g     F .text	000005f4 _realloc_r
000234c4 g       *ABS*	00000000 __bss_end
0001db68 g     F .text	000000f8 alt_iic_isr_register
0001de34 g     F .text	0000010c alt_tick
00010864 g     F .text	00000010 _Unwind_SjLj_Register
00019e98 g     F .text	000005dc __udivdi3
0001e814  w    O .rodata	00000014 _ZTVSt14overflow_error
00008838 g     F .text	00000190 _ZSt20__throw_length_errorPKc
0001f240 g     O .rodata	00000028 __mprec_bigtens
00019b20 g     F .text	00000120 __s2b
000116a8 g     F .text	00000018 abort
0001ae9c g     F .text	00000194 __floatunsidf
00005e98  w    F .text	0000003c _ZSt8_DestroyIPiiEvT_S1_SaIT0_E
00005b54  w    F .text	00000034 _ZN9__gnu_cxx17__normal_iteratorIPKiSt6vectorIiSaIiEEEC1ERKS2_
00009e9c  w    F .text	000000bc _ZNSs4_Rep10_M_refcopyEv
00018da8 g     F .text	00000060 __mcmp
00020dbc g     O .rwdata	00000004 __ctype_ptr
0000dc98 g     F .text	000000a4 __cxa_end_catch
00011ccc g     F .text	00000018 __fp_lock_all
0001db20 g     F .text	00000048 alt_ic_irq_enabled
0000ef4c g     F .text	00000010 _ZNSt13bad_exceptionD2Ev
00006770  w    F .text	00000040 _ZNSt12_Vector_baseIiSaIiEE11_M_allocateEm
0001dd9c g     F .text	00000098 alt_alarm_stop
00002c4c  w    F .text	00000034 _ZN9__gnu_cxx17__normal_iteratorIPK6MyRectSt6vectorIS1_SaIS1_EEEC1ERKS3_
00003938  w    F .text	00000088 _ZNSt6vectorI6MyRectSaIS0_EE9push_backERKS0_
00014f78 g     F .text	00000024 strtol
00009cfc  w    F .text	0000000c _ZNKSs4_Rep12_M_is_sharedEv
000063f0  w    F .text	00000044 _ZSt24__uninitialized_fill_n_aIPimiiEvT_T0_RKT1_SaIT2_E
00009c08  w    F .text	00000008 _ZNKSs7_M_dataEv
0000b348  w    F .text	00000060 _ZNSsC2ERKSsmmRKSaIcE
000229f0 g     O .bss	00000004 alt_irq_active
0000ed44 g     F .text	00000018 _ZSt9terminatev
0000d1f8  w    F .text	00000008 _ZNSs6resizeEm
000089fc  w    F .text	00000010 _ZNSt15underflow_errorD1Ev
0001cea8 g     F .text	00000054 alt_hostfs_close
00008068 g     F .text	00000190 _ZSt24__throw_invalid_argumentPKc
000000ec g     F .exceptions	000000c8 alt_irq_handler
0000c8a8  w    F .text	00000040 _ZNSs6assignEPKc
0001fb00 g     O .rwdata	00000028 alt_dev_null
00005c8c  w    F .text	0000004c _ZNKSt6vectorIiSaIiEE4sizeEv
0000b024  w    F .text	00000104 _ZNSs4_Rep7_M_grabERKSaIcES2_
0000cef4  w    F .text	00000050 _ZNSs6insertEmRKSsmm
00008ba4 g     F .text	00000008 _ZNKSt8ios_base7failure4whatEv
00006434  w    F .text	00000050 _ZN9__gnu_cxxneIPiSt6vectorIiSaIiEEEEbRKNS_17__normal_iteratorIT_T0_EESA_
00009aec g     F .text	0000010c _ZNSt11logic_errorD0Ev
00011024 g     F .text	000000c8 __unpack_f
00005f50  w    F .text	0000005c _ZNK9__gnu_cxx17__normal_iteratorIPiSt6vectorIiSaIiEEEmiERKl
0000aab8  w    F .text	00000050 _ZNKSs13find_first_ofEPKcm
0001eccc  w    O .rodata	00000022 _ZTSN10__cxxabiv117__class_type_infoE
000058e4  w    F .text	00000024 _ZN9__gnu_cxx13new_allocatorIiEC2ERKS1_
0000c130  w    F .text	000000e8 _ZNSs6appendERKSsmm
0001d448 g     F .text	00000044 alt_dcache_flush_all
00018c74 g     F .text	00000070 __hi0bits
00020d98  w    O .rwdata	00000008 _ZTISt9exception
00010608 g     F .text	000000d8 __fixdfsi
0000ab08  w    F .text	00000010 _ZNKSs4rendEv
0000a1b0  w    F .text	0000000c _ZNKSs4findERKSsm
00008f54 g     F .text	0000010c _ZNSt8ios_base7failureD0Ev
00009d38  w    F .text	0000014c _ZSt6searchIPKcS1_PFbRS0_S2_EET_S5_S5_T0_S6_T1_
0000cf44  w    F .text	0000000c _ZNSs6insertEmRKSs
00004744 g     F .text	0000022c _Z9predicatefR6MyRectS0_
00020e38 g       *ABS*	00000000 __ram_rwdata_end
00006c44  w    F .text	000000a0 _ZNSt6vectorI6MyRectSaIS0_EEC1EmRKS0_RKS1_
00006704  w    F .text	0000006c _ZN9__gnu_cxx13new_allocatorIiE8allocateEmPKv
02201000 g       *ABS*	00000000 __alt_mem_onchip_memory
0000f168 g     F .text	00000010 _ZNSt9type_infoD1Ev
00020dd0 g     O .rwdata	00000008 alt_dev_list
000229bc g     O .bss	00000004 __new_handler
00011fcc g     F .text	00000058 _fputc_r
0001e904  w    O .rodata	00000011 _ZTSSt12domain_error
0001be74 g     F .text	00000120 write
0000cbec  w    F .text	00000038 _ZNSs6insertEN9__gnu_cxx17__normal_iteratorIPcSsEEmc
00002d78  w    F .text	00000028 _ZNK9__gnu_cxx17__normal_iteratorIP6MyRectSt6vectorIS1_SaIS1_EEEdeEv
00013e44 g     F .text	000000e8 _putc_r
0000b70c  w    F .text	00000034 _ZNSsC1EPKcmRKSaIcE
00006a3c  w    F .text	00000038 _ZN9__gnu_cxx13new_allocatorIiE10deallocateEPim
0000d0e8  w    F .text	0000004c _ZNSs4rendEv
0000f158 g     F .text	00000010 _ZNSt9type_infoD0Ev
000096d4 g     F .text	00000104 _ZNSt13runtime_errorD1Ev
00005a94  w    F .text	00000050 _ZNSt12_Vector_baseIiSaIiEE12_Vector_implC1ERKS0_
0001f2ec g       *ABS*	00000000 __ram_rodata_end
00003248  w    F .text	00000050 _ZSt13copy_backwardIN9__gnu_cxx17__normal_iteratorIP6MyRectSt6vectorIS2_SaIS2_EEEES7_ET0_T_S9_S8_
0001b218 g     F .text	000000d4 fstat
00009e94  w    F .text	00000008 _ZNSs12_Alloc_hiderC2EPcRKSaIcE
000070b4  w    F .text	00000044 _ZSt18uninitialized_copyIPiS0_ET0_T_S2_S1_
0001b48c g     F .text	00000140 kill
0000b2e8  w    F .text	00000060 _ZNSsC1ERKSsmmRKSaIcE
000095ec g     F .text	00000030 _ZNSt12domain_errorC2ERKSs
000095bc g     F .text	00000030 _ZNSt12domain_errorC1ERKSs
00008b94  w    F .text	00000010 _ZNSt12domain_errorD1Ev
0000b2b4  w    F .text	00000034 _ZNSsC2IPcEET_S1_RKSaIcE
00019a00 g     F .text	00000120 __pow5mult
0000d498  w    F .text	0000014c _ZStplIcSt11char_traitsIcESaIcEESbIT_T0_T1_ES3_RKS6_
000229d8 g     O .bss	00000004 __nlocale_changed
000089c8  w    F .text	00000034 _ZNSt15underflow_errorD0Ev
00002e5c  w    F .text	00000024 _ZNK9__gnu_cxx17__normal_iteratorIPK6MyRectSt6vectorIS1_SaIS1_EEE4baseEv
0001085c g     F .text	00000008 __umodsi3
0000f150 g     F .text	00000008 _ZNKSt9type_info11__do_upcastEPKN10__cxxabiv117__class_type_infoEPPv
0000d944  w    F .text	00000064 _ZNSs7replaceEmmPKc
00006d48  w    F .text	00000048 _ZSt10__copy_auxIPiS0_ET0_T_S2_S1_
000234c4 g       *ABS*	00000000 end
0000dad0 g     F .text	00000004 _ZN9__gnu_cxx12__atomic_addEPVii
00010ec4 g     F .text	00000160 __pack_f
0000924c g     F .text	00000030 _ZNSt15underflow_errorC2ERKSs
00007384  w    F .text	00000084 _ZNSt22__copy_backward_normalILb1ELb1EE8copy_b_nIN9__gnu_cxx17__normal_iteratorIPiSt6vectorIiSaIiEEEES8_EET0_T_SA_S9_
0000d9a8  w    F .text	0000005c _ZNSs7replaceEmmRKSsmm
0000a164  w    F .text	00000030 _ZNKSs2atEm
00002a80  w    F .text	00000038 _ZNSaI6MyRectEC2ERKS0_
0000c8e8  w    F .text	00000050 _ZNSs6assignERKSsmm
0000b5c0  w    F .text	00000034 _ZNSsC1IPcEET_S1_RKSaIcE
000116c0 g     F .text	0000000c _atoi_r
00009c30  w    F .text	00000010 _ZNKSs7_M_iendEv
00010a24 g     F .text	00000018 _Unwind_DeleteException
00012930 g     F .text	00000024 fseek
0001c3f0 g     F .text	000000c0 altera_avalon_jtag_uart_init
00006368  w    F .text	00000044 _ZSt26__uninitialized_fill_n_auxIPimiEvT_T0_RKT1_11__true_type
00007918  w    F .text	000000c8 _ZNSt6vectorIiSaIiEE6resizeEmi
00009c90  w    F .text	00000008 _ZNKSs5beginEv
0001e60c g       *ABS*	00000000 __CTOR_LIST__
02000000 g       *ABS*	00000000 __alt_stack_pointer
0000ca44  w    F .text	00000018 _ZNSs7replaceEN9__gnu_cxx17__normal_iteratorIPcSsEES2_mc
000229fc  w    O .bss	00000010 _ZNSs4_Rep20_S_empty_rep_storageE
00009060 g     F .text	00000008 _ZNKSt13runtime_error4whatEv
00010e44 g     F .text	00000080 __clzsi2
00005814  w    F .text	00000020 _ZN9__gnu_cxx13new_allocatorIiEC2Ev
0001e9a0  w    O .rodata	0000000c _ZTISt13runtime_error
0000f188 g     F .text	0000006c _ZNK10__cxxabiv117__class_type_info11__do_upcastEPKS0_PPv
0001cb14 g     F .text	00000240 altera_avalon_jtag_uart_write
00011bf0 g     F .text	00000004 __sfp_lock_acquire
0001ec10  w    O .rodata	00000012 _ZTSSt13bad_exception
000138e0 g     F .text	000000e4 memchr
00014ff4 g     F .text	00001eac ___vfprintf_internal_r
00001f0c g     F .text	000001b8 _Z18ScaleImage_InvokerP9myCascadefiiRSt6vectorI6MyRectSaIS2_EE
0001e8ac  w    O .rodata	00000014 _ZTVSt12length_error
00002f74  w    F .text	00000054 _ZSt13__destroy_auxIP6MyRectEvT_S2_12__false_type
00005c34  w    F .text	00000058 _ZN9__gnu_cxxmiIPKiS2_St6vectorIiSaIiEEEENS_17__normal_iteratorIT_T1_E15difference_typeERKS9_RKNS6_IT0_S8_EE
000121e0 g     F .text	00000314 _free_r
0000d8e0  w    F .text	0000001c _ZNSs7replaceEN9__gnu_cxx17__normal_iteratorIPcSsEES2_S2_S2_
0000ac68  w    F .text	00000034 _ZNSsC1ERKSaIcE
0001e174 g     F .text	000001b0 __call_exitprocs
00009d14  w    F .text	00000008 _ZNSs4_Rep15_M_set_sharableEv
00005ed4  w    F .text	00000024 _ZNK9__gnu_cxx17__normal_iteratorIPiSt6vectorIiSaIiEEE4baseEv
00020d88  w    O .rwdata	00000004 _ZNSs4_Rep11_S_max_sizeE
000229dc g     O .bss	00000004 __mlocale_changed
00008b0c  w    F .text	00000010 _ZNSt12length_errorD1Ev
00020db8 g     O .rwdata	00000004 __malloc_sbrk_base
000001b4 g     F .text	0000004c _start
0001e9bc  w    O .rodata	0000000c _ZTISt11logic_error
00009ccc  w    F .text	00000008 _ZNKSs4dataEv
000009f0 g     F .text	00000064 freeSumImage
000229f4 g     O .bss	00000004 _alt_tick_rate
00002f44  w    F .text	00000030 _ZSt8_DestroyI6MyRectEvPT_
00002ed8  w    F .text	0000004c _ZNKSt6vectorI6MyRectSaIS0_EE4sizeEv
0001ec90  w    O .rodata	0000000d _ZTSSt9type_info
00009cc0  w    F .text	0000000c _ZNKSs8capacityEv
00009c10  w    F .text	0000000c _ZNSs7_M_dataEPc
0000921c g     F .text	00000030 _ZNSt15underflow_errorC1ERKSs
00019590 g     F .text	0000014c __lshift
00009c40  w    F .text	00000018 _ZNKSs8_M_limitEmm
0001ec40  w    O .rodata	00000014 _ZTVSt9bad_alloc
000229f8 g     O .bss	00000004 _alt_nticks
00014ae0 g     F .text	0000001c signal
0001bbd8 g     F .text	00000120 read
0000c978  w    F .text	000000cc _ZNSs14_M_replace_auxEmmmc
0001c028 g     F .text	00000248 alt_sys_init
0000fa40 g     F .text	00000098 __floatsisf
0000baa0  w    F .text	000000fc _ZNSsC2ERKSs
00009cd4  w    F .text	00000008 _ZNKSs13get_allocatorEv
00002954  w    F .text	00000020 _ZN9__gnu_cxx13new_allocatorI6MyRectEC2Ev
0001eb50  w    O .rodata	0000000c _ZTISt10bad_typeid
00013c50 g     F .text	00000078 _open_r
0001e03c g     F .text	00000134 __register_exitproc
0001ec54  w    O .rodata	0000000d _ZTSSt9bad_alloc
00003584  w    F .text	00000038 _ZN9__gnu_cxx13new_allocatorI6MyRectE10deallocateEPS1_m
0000a0d0  w    F .text	00000094 _ZNKSs4findEPKcmm
0000cc24  w    F .text	00000050 _ZNSs5eraseEN9__gnu_cxx17__normal_iteratorIPcSsEES2_
000196dc g     F .text	000001e8 __multiply
0001c788 g     F .text	00000074 altera_avalon_jtag_uart_close
00006278  w    F .text	0000003c _ZSt8_DestroyIN9__gnu_cxx17__normal_iteratorIPiSt6vectorIiSaIiEEEEiEvT_S7_SaIT0_E
0001f2ec g       *ABS*	00000000 __ram_rwdata_start
00010b8c g     F .text	000000f8 _Unwind_SjLj_RaiseException
0001e610 g       *ABS*	00000000 __ram_rodata_start
0000a89c  w    F .text	00000060 _ZNKSs7compareERKSs
0002320c g     O .bss	00000028 __malloc_current_mallinfo
00010b30 g     F .text	0000005c _Unwind_SjLj_Resume
0000cfc0  w    F .text	00000014 _ZNSs7_M_leakEv
00019288 g     F .text	0000017c __d2b
0000f178 g     F .text	00000010 _ZNSt9type_infoD2Ev
00006124  w    F .text	00000044 _ZSt24__uninitialized_fill_n_aIP6MyRectmS0_S0_EvT_T0_RKT1_SaIT2_E
00006f60  w    F .text	00000044 _ZSt18uninitialized_copyIN9__gnu_cxx17__normal_iteratorIPiSt6vectorIiSaIiEEEES6_ET0_T_S8_S7_
0000eaa0 g     F .text	00000078 _ZNK10__cxxabiv120__si_class_type_info11__do_upcastEPKNS_17__class_type_infoEPKvRNS1_15__upcast_resultE
00008b50  w    F .text	00000010 _ZNSt16invalid_argumentD1Ev
00009c98  w    F .text	00000010 _ZNKSs3endEv
00009fbc  w    F .text	0000002c _ZNSs9_M_assignEPcmc
000050dc g     F .text	00000738 groupRectangles
0001c2a8 g     F .text	00000058 altera_avalon_jtag_uart_read_fd
00000ad4 g     F .text	000000c8 _Z8int_sqrtj
0001d8ac g     F .text	000000b8 alt_get_fd
00002a24  w    F .text	00000024 _ZN9__gnu_cxx13new_allocatorI6MyRectEC2ERKS2_
00000414 g     F .text	000000b0 itochar
00003468  w    F .text	0000003c _ZSt8_DestroyIN9__gnu_cxx17__normal_iteratorIP6MyRectSt6vectorIS2_SaIS2_EEEEEvT_S8_
0000a2ec  w    F .text	00000064 _ZNKSs5rfindEcm
00005908  w    F .text	00000038 _ZNSaIiEC2ERKS_
000115e0 g     F .text	000000c8 __fpcmp_parts_d
0001e7cc  w    O .rodata	00000014 _ZTSSt15underflow_error
0000a7a0  w    F .text	00000010 _ZNKSs13find_first_ofEcm
000171c4 g     F .text	00000070 _close_r
00007070  w    F .text	00000044 _ZSt24__uninitialized_copy_auxIPiS0_ET0_T_S2_S1_11__true_type
00022988 g     O .bss	00000004 n_features
000018e0 g     F .text	0000017c _Z15nearestNeighborP7MyImageS0_
000139c4 g     F .text	00000074 memcmp
0001c358 g     F .text	00000048 altera_avalon_jtag_uart_close_fd
000234c4 g       *ABS*	00000000 __alt_stack_base
0001c3a0 g     F .text	00000050 altera_avalon_jtag_uart_ioctl_fd
0000ef68 g     F .text	00000034 _ZNSt9bad_allocD0Ev
0000eb4c g     F .text	00000010 _ZN10__cxxabiv120__si_class_type_infoD1Ev
00008a84  w    F .text	00000010 _ZNSt11range_errorD1Ev
00017088 g     F .text	0000013c __swsetup_r
0001e834  w    O .rodata	00000010 _ZTSSt11range_error
00010d54 g     F .text	00000058 _Unwind_SjLj_Resume_or_Rethrow
0001aa24 g     F .text	00000258 __divdf3
00011d68 g     F .text	000000f0 __sfp
000059cc  w    F .text	00000028 _ZNK9__gnu_cxx17__normal_iteratorIPiSt6vectorIiSaIiEEEdeEv
000190ec g     F .text	00000058 __copybits
0001e8f8  w    O .rodata	0000000c _ZTISt12domain_error
0000f130 g     F .text	00000008 _ZNKSt9type_info14__is_pointer_pEv
0001eb70  w    O .rodata	0000000c _ZTSSt8bad_cast
000024cc  w    F .text	000000a4 _Z7myRoundf
0000d8c4  w    F .text	0000001c _ZNSs7replaceEN9__gnu_cxx17__normal_iteratorIPcSsEES2_NS0_IPKcSsEES5_
0001e7f4  w    O .rodata	0000000c _ZTISt14overflow_error
00005978  w    F .text	00000030 _ZNSt12_Vector_baseIiSaIiEE12_Vector_implD1Ev
0001f6ec g     O .rwdata	00000408 __malloc_av_
00011bfc g     F .text	00000004 __sinit_lock_release
0000733c  w    F .text	00000048 _ZSt19__copy_backward_auxIPiS0_ET0_T_S2_S1_
00005ae4  w    F .text	00000038 _ZNSt12_Vector_baseIiSaIiEEC2ERKS0_
000100c4 g     F .text	000003c4 __muldf3
00014c60 g     F .text	00000060 __sread
0001ecfc g     O .rodata	00000010 __thenan_sf
000041d8  w    F .text	00000084 _ZNSt13__copy_normalILb1ELb1EE6copy_nIN9__gnu_cxx17__normal_iteratorIPK6MyRectSt6vectorIS4_SaIS4_EEEENS3_IPS4_S9_EEEET0_T_SE_SD_
0001ebfc  w    O .rodata	00000014 _ZTVSt9exception
00006fa4  w    F .text	00000044 _ZSt22__uninitialized_copy_aIN9__gnu_cxx17__normal_iteratorIPiSt6vectorIiSaIiEEEES6_iET0_T_S8_S7_SaIT1_E
0001d6fc g     F .text	00000120 alt_find_file
0000da28  w    F .text	00000030 _ZNSs7replaceEN9__gnu_cxx17__normal_iteratorIPcSsEES2_RKSs
0000f1f4 g     F .text	00000020 _ZNK10__cxxabiv117__class_type_info20__do_find_public_srcElPKvPKS0_S2_
0000cf50  w    F .text	00000014 _ZNSs5clearEv
0001d48c g     F .text	000000b4 alt_dev_llist_insert
00006320  w    F .text	00000048 _ZSt6fill_nIPimiET_S1_T0_RKT1_
0001b8d4 g     F .text	00000020 __malloc_lock
0001bdb8 g     F .text	000000bc sbrk
000081f8 g     F .text	00000190 _ZSt20__throw_domain_errorPKc
00007bb8 g     F .text	00000190 _ZSt19__throw_logic_errorPKc
0001eca0  w    O .rodata	0000002c _ZTVN10__cxxabiv117__class_type_infoE
0000db9c g     F .text	00000074 __cxa_throw
000117fc g     F .text	000001fc _fflush_r
00000a54 g     F .text	00000040 setImage
000108e8 g     F .text	00000010 _Unwind_SetIP
0000a6a4  w    F .text	00000088 _ZNKSs13find_first_ofEPKcmm
00019de4 g     F .text	000000b4 _calloc_r
00006ce4  w    F .text	00000064 _ZNSt6__copyILb1ESt26random_access_iterator_tagE4copyIiEEPT_PKS3_S6_S4_
0000a350  w    F .text	00000010 _ZNKSs12find_last_ofEcm
0001e88c  w    O .rodata	0000000c _ZTISt12length_error
00009d08  w    F .text	0000000c _ZNSs4_Rep13_M_set_leakedEv
0000b740  w    F .text	00000034 _ZNSsC2EPKcmRKSaIcE
00008388 g     F .text	00000190 _ZSt19__throw_range_errorPKc
0000955c g     F .text	00000030 _ZNSt16invalid_argumentC1ERKSs
00011f4c g     F .text	0000001c fopen
00022984 g       *ABS*	00000000 __bss_start
0000a72c  w    F .text	0000000c _ZNKSs13find_first_ofERKSsm
00006578  w    F .text	00000078 _ZNSt8__fill_nILb1EE6fill_nIN9__gnu_cxx17__normal_iteratorIPiSt6vectorIiSaIiEEEEmiEET_S9_T0_RKT1_
0000aee8  w    F .text	000000a0 _ZNKSs7compareEmmRKSs
00013bb8 g     F .text	00000098 memset
00009d1c  w    F .text	00000014 _ZNSs4_Rep26_M_set_length_and_sharableEm
00009c74  w    F .text	0000000c _ZNSs12_S_empty_repEv
00003a9c g     F .text	00000340 main
0001e98c  w    O .rodata	00000012 _ZTSSt13runtime_error
000229ec g     O .bss	00000004 alt_envp
000229d4 g     O .bss	00000004 __malloc_max_total_mem
00002d3c  w    F .text	0000003c _ZNSt6vectorI6MyRectSaIS0_EE3endEv
0001eb2c  w    O .rodata	00000014 _ZTVSt10bad_typeid
0001c300 g     F .text	00000058 altera_avalon_jtag_uart_write_fd
00005834  w    F .text	00000030 _ZNSaIiEC1Ev
00000314 g     F .text	00000100 myatoi
00016ff4 g     F .text	0000001c __swbuf
00007a7c g     F .text	00000034 _ZSt21__throw_bad_exceptionv
00002974  w    F .text	00000030 _ZNSaI6MyRectEC1Ev
0000ec68 g     F .text	00000008 __cxa_get_globals_fast
00006024  w    F .text	0000004c _ZN9__gnu_cxx17__normal_iteratorIPiSt6vectorIiSaIiEEEpLERKl
0001e940  w    O .rodata	00000016 _ZTSNSt8ios_base7failureE
000029c4  w    F .text	00000030 _ZNSaI6MyRectED1Ev
0001eb5c  w    O .rodata	00000014 _ZTVSt8bad_cast
00014b74 g     F .text	00000008 __sclose
02000000 g       *ABS*	00000000 __alt_heap_limit
000024a4  w    F .text	00000028 _ZnwmPv
000117e8 g     F .text	00000014 fclose
00014d34 g     F .text	00000244 _strtol_r
00023334 g     O .bss	00000190 _atexit0
00008ac8  w    F .text	00000010 _ZNSt12out_of_rangeD1Ev
0000098c g     F .text	00000064 freeImage
0001744c g     F .text	000015b4 _dtoa_r
000131a0 g     F .text	00000740 _malloc_r
0000b6d8  w    F .text	00000034 _ZNSsC2IPKcEET_S2_RKSaIcE
0000ac9c  w    F .text	00000034 _ZNSsC2ERKSaIcE
00020ddc g     O .rwdata	00000004 alt_errno
0000d918  w    F .text	0000001c _ZNSs7replaceEN9__gnu_cxx17__normal_iteratorIPcSsEES2_S1_S1_
000092ac g     F .text	00000030 _ZNSt14overflow_errorC2ERKSs
00008a50  w    F .text	00000034 _ZNSt11range_errorD0Ev
00014968 g     F .text	00000010 _init_signal
0001ecf0  w    O .rodata	0000000c _ZTIN10__cxxabiv117__class_type_infoE
00002f24  w    F .text	00000020 _ZN6MyRectD1Ev
00012f2c g     F .text	000000b8 _fwalk
000042ac  w    F .text	0000005c _ZNSt13__copy_normalILb1ELb0EE6copy_nIN9__gnu_cxx17__normal_iteratorIPK6MyRectSt6vectorIS4_SaIS4_EEEEPS4_EET0_T_SD_SC_
00002c14  w    F .text	00000038 _ZNSt6vectorI6MyRectSaIS0_EEC1ERKS1_
00011a2c g     F .text	00000148 _fgets_r
0000a5b4  w    F .text	000000e4 _ZNKSs12find_last_ofEPKcmm
0000ef3c g     F .text	00000010 _ZNSt13bad_exceptionD1Ev
00013d40 g     F .text	00000104 putc
00010794 g     F .text	00000060 __divsi3
0001ed0c g     O .rodata	00000014 __thenan_df
000120b4 g     F .text	0000012c _malloc_trim_r
000070f8  w    F .text	00000044 _ZSt22__uninitialized_copy_aIPiS0_iET0_T_S2_S1_SaIT1_E
0001e610 g       *ABS*	00000000 __CTOR_END__
0000f5fc g     F .text	000001e0 __mulsf3
00002b0c  w    F .text	00000080 _ZN9__gnu_cxx13new_allocatorI6MyRectE9constructEPS1_RKS1_
00005ef8  w    F .text	00000058 _ZN9__gnu_cxxmiIPiS1_St6vectorIiSaIiEEEENS_17__normal_iteratorIT_T1_E15difference_typeERKS8_RKNS5_IT0_S7_EE
0000c218  w    F .text	000000bc _ZNSs6appendERKSs
0000be3c  w    F .text	00000088 _ZNSs9push_backEc
00019d28 g     F .text	000000bc strcmp
0000b1b0  w    F .text	00000020 _ZNSs13_S_copy_charsEPcPKcS1_
000059f4  w    F .text	00000050 _ZN9__gnu_cxxeqIPK6MyRectSt6vectorIS1_SaIS1_EEEEbRKNS_17__normal_iteratorIT_T0_EESC_
0001e610 g       *ABS*	00000000 __flash_rodata_start
00004970 g     F .text	00000198 drawRectangle
000040f8  w    F .text	0000009c _ZNSt6__copyILb0ESt26random_access_iterator_tagE4copyIPK6MyRectPS3_EET0_T_S8_S7_
00008e50 g     F .text	00000104 _ZNSt8ios_base7failureD2Ev
00007228  w    F .text	00000044 _ZSt18uninitialized_copyIN9__gnu_cxx17__normal_iteratorIPiSt6vectorIiSaIiEEEES2_ET0_T_S8_S7_
0001e610 g       *ABS*	00000000 __DTOR_LIST__
00008cb0 g     F .text	000000d0 _ZNSt8ios_base7failureC1ERKSs
00005884  w    F .text	00000030 _ZNSaIiED2Ev
0002298c g     O .bss	00000004 iter_counter
0000b7a8  w    F .text	00000060 _ZNSsC1EPKcRKSaIcE
0001ad04 g     F .text	00000088 __nedf2
0000ea90 g     F .text	00000010 _ZNSt8bad_castD2Ev
0000949c g     F .text	00000030 _ZNSt12out_of_rangeC1ERKSs
00006f1c  w    F .text	00000044 _ZSt24__uninitialized_copy_auxIN9__gnu_cxx17__normal_iteratorIPiSt6vectorIiSaIiEEEES6_ET0_T_S8_S7_11__true_type
0001bff4 g     F .text	00000034 alt_irq_init
0000b1f0  w    F .text	000000c4 _ZNSs12_S_constructIPcEES0_T_S1_RKSaIcESt20forward_iterator_tag
0001bd58 g     F .text	00000060 alt_release_fd
0000eb18 g     F .text	00000034 _ZN10__cxxabiv120__si_class_type_infoD0Ev
0000cea4  w    F .text	00000050 _ZNSs6insertEmPKc
00003fc4  w    F .text	00000028 _ZNK9__gnu_cxx17__normal_iteratorIPK6MyRectSt6vectorIS1_SaIS1_EEEdeEv
00000780 g     F .text	0000011c cpyPgm
0001ed20 g     O .rodata	00000100 __clz_tab
000099e8 g     F .text	00000104 _ZNSt11logic_errorD2Ev
00005d0c  w    F .text	00000038 _ZNSt6vectorIiSaIiEE5beginEv
0000cf64  w    F .text	0000005c _ZNSs12_M_leak_hardEv
00005df8  w    F .text	0000003c _ZNSt6vectorIiSaIiEE3endEv
000229e0 g     O .bss	00000004 _PathLocale
00006fe8  w    F .text	00000040 _ZNSt13__copy_normalILb0ELb0EE6copy_nIPiS2_EET0_T_S4_S3_
00006a74  w    F .text	00000050 _ZNSt12_Vector_baseIiSaIiEE13_M_deallocateEPim
000060e0  w    F .text	00000044 _ZSt20uninitialized_fill_nIP6MyRectmS0_EvT_T0_RKT1_
00002cc4  w    F .text	00000044 _ZNKSt6vectorI6MyRectSaIS0_EE5beginEv
0001e9ac  w    O .rodata	00000010 _ZTSSt11logic_error
00009068 g     F .text	00000104 _ZNSt11logic_errorD1Ev
0001dff0 g     F .text	00000014 atexit
000020c4 g     F .text	000003e0 detectObjects
0001e828  w    O .rodata	0000000c _ZTISt11range_error
0000f950 g     F .text	00000078 __gesf2
000092dc g     F .text	00000030 _ZNSt11range_errorC1ERKSs
00017010 g     F .text	00000078 _write_r
00003f3c  w    F .text	00000050 _ZN9__gnu_cxxneIPK6MyRectSt6vectorIS1_SaIS1_EEEEbRKNS_17__normal_iteratorIT_T0_EESC_
00018bb8 g     F .text	0000001c setlocale
00008a94  w    F .text	00000034 _ZNSt12out_of_rangeD0Ev
0001091c g     F .text	00000008 _Unwind_GetTextRelBase
0000ee84 g     F .text	00000044 __cxa_call_terminate
000034a4  w    F .text	0000003c _ZSt8_DestroyIN9__gnu_cxx17__normal_iteratorIP6MyRectSt6vectorIS2_SaIS2_EEEES2_EvT_S8_SaIT0_E
00020dac g     O .rwdata	00000004 _impure_ptr
000229e4 g     O .bss	00000004 alt_argc
0001d604 g     F .text	00000064 _do_dtors
000124f4 g     F .text	0000043c _fseek_r
00006638  w    F .text	00000044 _ZSt26__uninitialized_fill_n_auxIN9__gnu_cxx17__normal_iteratorIPiSt6vectorIiSaIiEEEEmiEvT_T0_RKT1_11__true_type
000145d4 g     F .text	000001c4 __srefill_r
0000d350  w    F .text	00000114 _ZStplIcSt11char_traitsIcESaIcEESbIT_T0_T1_ERKS6_S8_
00002b8c  w    F .text	00000050 _ZNSt12_Vector_baseI6MyRectSaIS0_EE12_Vector_implC1ERKS1_
00000020 g       .exceptions	00000000 alt_irq_entry
00009f90  w    F .text	0000002c _ZNKSs8_M_checkEmPKc
0000aa18  w    F .text	00000050 _ZNKSs17find_first_not_ofEPKcm
00003e8c  w    F .text	00000058 _ZNSt6vectorI6MyRectSaIS0_EEixEm
000029f4  w    F .text	00000030 _ZNSaI6MyRectED2Ev
0000a194  w    F .text	00000010 _ZNKSs5emptyEv
00018e08 g     F .text	00000080 __ulp
00019cb8 g     F .text	00000040 __isinfd
0001090c g     F .text	00000008 _Unwind_FindEnclosingFunction
00009e84  w    F .text	00000010 _ZN9__gnu_cxxeqIPcSsEEbRKNS_17__normal_iteratorIT_T0_EES7_
00011cb4 g     F .text	00000018 __fp_unlock_all
00011f68 g     F .text	00000064 fputc
0000ccc4  w    F .text	0000006c _ZNSs5eraseEmm
00020dc8 g     O .rwdata	00000008 alt_fs_list
0000a2c0  w    F .text	0000000c _ZNKSs5rfindERKSsm
0000b4d4  w    F .text	000000ec _ZNSsC2ERKSsmm
0000a890  w    F .text	0000000c _ZNKSs16find_last_not_ofERKSsm
000108f8 g     F .text	0000000c _Unwind_GetLanguageSpecificData
0001cf9c g     F .text	000000a0 alt_hostfs_write
00008b1c  w    F .text	00000034 _ZNSt16invalid_argumentD0Ev
0000dd3c g     F .text	00000118 __cxa_begin_catch
00003404  w    F .text	00000064 _ZSt13__destroy_auxIN9__gnu_cxx17__normal_iteratorIP6MyRectSt6vectorIS2_SaIS2_EEEEEvT_S8_12__false_type
0000f258 g     F .text	00000010 _ZN10__cxxabiv117__class_type_infoD2Ev
0000ed5c g     F .text	00000010 _ZN10__cxxabiv112__unexpectedEPFvvE
0001e898  w    O .rodata	00000011 _ZTSSt12length_error
00000020 g       *ABS*	00000000 __ram_exceptions_start
00006ac4  w    F .text	00000060 _ZNSt12_Vector_baseIiSaIiEED2Ev
00018b24 g     F .text	00000010 localeconv
00007a14 g     F .text	00000034 _ZSt16__throw_bad_castv
00001ac0 g     F .text	0000044c readTextClassifier
00005864  w    F .text	00000020 _ZN9__gnu_cxx13new_allocatorIiED2Ev
0000ef08 g     F .text	00000034 _ZNSt13bad_exceptionD0Ev
00020d90 g     O .rwdata	00000004 _ZN10__cxxabiv119__terminate_handlerE
00007198  w    F .text	0000004c _ZSt4copyIN9__gnu_cxx17__normal_iteratorIPiSt6vectorIiSaIiEEEES2_ET0_T_S8_S7_
00002a48  w    F .text	00000038 _ZNSaI6MyRectEC1ERKS0_
0001e7e0  w    O .rodata	00000014 _ZTVSt15underflow_error
000061ec  w    F .text	00000028 _ZNK9__gnu_cxx13new_allocatorIiE8max_sizeEv
00004194  w    F .text	00000044 _ZSt10__copy_auxIPK6MyRectPS0_ET0_T_S5_S4_
0001d994 g     F .text	00000050 alt_ic_isr_register
0000effc g     F .text	00000134 __cxa_allocate_exception
0001ebdc  w    O .rodata	0000000c _ZTIN10__cxxabiv120__si_class_type_infoE
0000ef5c g     F .text	0000000c _ZSt15set_new_handlerPFvvE
0000cba4  w    F .text	00000048 _ZNSsaSEc
00020e38 g       *ABS*	00000000 _edata
00003ddc  w    F .text	00000058 _ZNK9__gnu_cxx17__normal_iteratorIPK6MyRectSt6vectorIS1_SaIS1_EEEplERKl
00004354  w    F .text	00000078 _ZNSt6vectorI6MyRectSaIS0_EE20_M_allocate_and_copyIN9__gnu_cxx17__normal_iteratorIPKS0_S2_EEEEPS0_mT_SA_
000234c4 g       *ABS*	00000000 _end
00020da0 g     O .rwdata	00000001 _ZSt7nothrow
000098dc g     F .text	0000010c _ZNSt13runtime_errorD0Ev
0000e56c g     F .text	000004e0 __gxx_personality_sj0
0000af88  w    F .text	0000009c _ZNSs4_Rep8_M_cloneERKSaIcEm
00005c10  w    F .text	00000024 _ZNK9__gnu_cxx17__normal_iteratorIPKiSt6vectorIiSaIiEEE4baseEv
000001b4 g       *ABS*	00000000 __ram_exceptions_end
00007028  w    F .text	00000048 _ZSt4copyIPiS0_ET0_T_S2_S1_
0001c7fc g     F .text	000000f4 altera_avalon_jtag_uart_ioctl
00012024 g     F .text	00000074 _fputs_r
00005b88  w    F .text	00000044 _ZNKSt6vectorIiSaIiEE3endEv
000058b4  w    F .text	00000030 _ZNSaIiED1Ev
00003fec  w    F .text	00000084 _ZSt24__uninitialized_copy_auxIN9__gnu_cxx17__normal_iteratorIPK6MyRectSt6vectorIS2_SaIS2_EEEEPS2_ET0_T_SB_SA_12__false_type
00003298  w    F .text	00000050 _ZN9__gnu_cxxneIP6MyRectSt6vectorIS1_SaIS1_EEEEbRKNS_17__normal_iteratorIT_T0_EESB_
0000f2f8 g     F .text	0000004c _ZNK10__cxxabiv117__class_type_info12__do_dyncastElNS0_10__sub_kindEPKS0_PKvS3_S5_RNS0_16__dyncast_resultE
00002da0  w    F .text	00000028 _ZNKSt6vectorI6MyRectSaIS0_EE8max_sizeEv
0000eee8 g     F .text	00000010 _ZNSt9exceptionD1Ev
0001da80 g     F .text	000000a0 alt_ic_irq_disable
00003f8c  w    F .text	00000038 _ZN9__gnu_cxx17__normal_iteratorIPK6MyRectSt6vectorIS1_SaIS1_EEEppEv
000229b0 g     O .bss	00000004 _ZN14__gnu_internal12atomic_mutexE
0001e958  w    O .rodata	0000000c _ZTINSt8ios_base7failureE
00014be4 g     F .text	0000007c __swrite
00020db4 g     O .rwdata	00000004 __malloc_trim_threshold
0001df40 g     F .text	00000020 altera_nios2_qsys_irq_init
0000a41c  w    F .text	00000130 _ZNSs4_Rep9_S_createEmmRKSaIcE
0001e004 g     F .text	00000038 exit
000108ac g     F .text	00000018 _Unwind_SetGR
0000c2d4  w    F .text	00000004 _ZNSspLERKSs
00012e64 g     F .text	000000c8 _fwalk_reent
0001e918  w    O .rodata	00000014 _ZTVSt12domain_error
00019404 g     F .text	0000018c __mdiff
0000eca0 g     F .text	000000a4 _ZN10__cxxabiv111__terminateEPFvvE
0000ca5c  w    F .text	00000068 _ZNSs7replaceEmmmc
00004070  w    F .text	00000044 _ZSt18uninitialized_copyIN9__gnu_cxx17__normal_iteratorIPK6MyRectSt6vectorIS2_SaIS2_EEEEPS2_ET0_T_SB_SA_
000107f4 g     F .text	00000060 __modsi3
000013a4 g     F .text	0000034c runCascadeClassifier
0000ef9c g     F .text	00000010 _ZNSt9bad_allocD1Ev
00000b9c g     F .text	00000808 setImageForCascadeClassifier
02000000 g       *ABS*	00000000 __alt_data_end
00000020 g     F .exceptions	00000000 alt_exception
00002bdc  w    F .text	00000038 _ZNSt12_Vector_baseI6MyRectSaIS0_EEC2ERKS1_
00011bf4 g     F .text	00000004 __sfp_lock_release
000035bc  w    F .text	00000050 _ZNSt12_Vector_baseI6MyRectSaIS0_EE13_M_deallocateEPS0_m
00003544  w    F .text	00000040 _ZNSt12_Vector_baseI6MyRectSaIS0_EE11_M_allocateEm
0000eba0 g     F .text	000000c8 _ZNK10__cxxabiv120__si_class_type_info12__do_dyncastElNS_17__class_type_info10__sub_kindEPKS1_PKvS4_S6_RNS1_16__dyncast_resultE
0001ec24  w    O .rodata	0000000c _ZTISt13bad_exception
00000000 g       *ABS*	00000000 __alt_mem_sdram
00004308  w    F .text	0000004c _ZSt4copyIN9__gnu_cxx17__normal_iteratorIPK6MyRectSt6vectorIS2_SaIS2_EEEEPS2_ET0_T_SB_SA_
000116cc g     F .text	0000000c atoi
0001eea6 g     O .rodata	00000101 _ctype_
000016f0 g     F .text	000001f0 _Z14integralImagesP7MyImageP10MyIntImageS2_
00008b60  w    F .text	00000034 _ZNSt12domain_errorD0Ev
000068f8  w    F .text	00000144 _ZNSt12_Vector_baseI6MyRectSaIS0_EEC2EmRKS1_
0000a018  w    F .text	00000008 _ZNKSs5c_strEv
000110ec g     F .text	000000a8 __fpcmp_parts_f
000067b0  w    F .text	00000148 _ZNSt12_Vector_baseIiSaIiEEC2EmRKS0_
00011e58 g     F .text	000000f4 _fopen_r
00019cf8 g     F .text	00000030 __isnand
0001b1f8 g     F .text	00000020 _exit
00008d80 g     F .text	000000d0 _ZNSt8ios_base7failureC2ERKSs
0001d2f4 g     F .text	00000154 alt_alarm_start
000086a8 g     F .text	00000190 _ZSt20__throw_out_of_rangePKc
0000acd0  w    F .text	00000090 _ZNKSs7compareEmmPKcm
0000cac4  w    F .text	00000060 _ZNSs6insertEN9__gnu_cxx17__normal_iteratorIPcSsEEc
00010dac g     F .text	00000098 __muldi3
00010880 g     F .text	00000018 _Unwind_GetGR
0000ec70 g     F .text	00000008 __cxa_get_globals
00003e34  w    F .text	00000058 _ZNK9__gnu_cxx17__normal_iteratorIP6MyRectSt6vectorIS1_SaIS1_EEEplERKl
00012fe4 g     F .text	00000194 __smakebuf_r
0000623c  w    F .text	0000003c _ZSt8_DestroyIN9__gnu_cxx17__normal_iteratorIPiSt6vectorIiSaIiEEEEEvT_S7_
00020d94 g     O .rwdata	00000004 _ZN10__cxxabiv120__unexpected_handlerE
0000c0f0  w    F .text	00000040 _ZNSspLEPKc
000040b4  w    F .text	00000044 _ZSt22__uninitialized_copy_aIN9__gnu_cxx17__normal_iteratorIPK6MyRectSt6vectorIS2_SaIS2_EEEEPS2_S2_ET0_T_SB_SA_SaIT1_E
00014cc0 g     F .text	00000074 strlen
000066c0  w    F .text	00000044 _ZSt24__uninitialized_fill_n_aIN9__gnu_cxx17__normal_iteratorIPiSt6vectorIiSaIiEEEEmiiEvT_T0_RKT1_SaIT2_E
00007d48 g     F .text	00000190 _ZSt23__throw_underflow_errorPKc
00014904 g     F .text	00000064 _init_signal_r
00020da4  w    O .rwdata	00000008 _ZTISt9type_info
0001b9f0 g     F .text	00000188 open
00009ce4  w    F .text	0000000c _ZNSs4_Rep12_S_empty_repEv
00009cdc  w    F .text	00000008 _ZNSs12_Alloc_hiderC1EPcRKSaIcE
0001ae14 g     F .text	00000088 __gedf2
0001ec30  w    O .rodata	0000000d _ZTSSt9exception
0001e964  w    O .rodata	00000014 _ZTVSt13runtime_error
00006168  w    F .text	00000084 _ZNSt6vectorI6MyRectSaIS0_EE5clearEv
0001eb40  w    O .rodata	0000000f _ZTSSt10bad_typeid
0000a1a4  w    F .text	0000000c _ZNKSs6lengthEv
0000b1d0  w    F .text	00000020 _ZNSs13_S_copy_charsEPcS_S_
0000961c g     F .text	00000008 _ZNKSt11logic_error4whatEv
0000b614  w    F .text	000000c4 _ZNSs12_S_constructIPKcEEPcT_S3_RKSaIcESt20forward_iterator_tag
0000eed8 g     F .text	00000010 _ZNSt9exceptionD0Ev
0000d188  w    F .text	00000070 _ZNSs6resizeEmc
00003068  w    F .text	0000007c _ZSt10_ConstructI6MyRectS0_EvPT_RKT0_
0001d964 g     F .text	00000030 alt_icache_flush_all
0001e92c  w    O .rodata	00000014 _ZTVNSt8ios_base7failureE
0000db08 g     F .text	00000010 _ZNSt10bad_typeidD1Ev
00012098 g     F .text	0000001c fputs
00010914 g     F .text	00000008 _Unwind_GetDataRelBase
0000d8fc  w    F .text	0000001c _ZNSs7replaceEN9__gnu_cxx17__normal_iteratorIPcSsEES2_PKcS4_
00020e2c g     O .rwdata	00000004 alt_priority_mask
0000cd30  w    F .text	00000174 _ZNSs6insertEmPKcm
0001d9e4 g     F .text	0000009c alt_ic_irq_enable
00016ea0 g     F .text	00000024 __vfprintf_internal
00009cb4  w    F .text	0000000c _ZNKSs8max_sizeEv
00008bac g     F .text	00000104 _ZNSt8ios_base7failureD1Ev
0000db18 g     F .text	00000010 _ZNSt10bad_typeidD2Ev
000065f0  w    F .text	00000048 _ZSt6fill_nIN9__gnu_cxx17__normal_iteratorIPiSt6vectorIiSaIiEEEEmiET_S7_T0_RKT1_
0000ffd0 g     F .text	00000080 __subdf3
0000a54c  w    F .text	00000004 _ZNSs4_Rep10_M_destroyERKSaIcE
0000ae28  w    F .text	000000c0 _ZNKSs7compareEmmRKSsmm
0000a698  w    F .text	0000000c _ZNKSs12find_last_ofERKSsm
00001a5c g     F .text	00000064 releaseTextClassifier
0000b808  w    F .text	00000060 _ZNSsC2EPKcRKSaIcE
00009d30  w    F .text	00000008 _ZNSs4_Rep10_M_refdataEv
00018ce4 g     F .text	000000c4 __lo0bits
0000d134  w    F .text	00000054 _ZNSs6rbeginEv
0000cb24  w    F .text	00000048 _ZNSs6insertEmmc
0000425c  w    F .text	00000050 _ZSt4copyIN9__gnu_cxx17__normal_iteratorIPK6MyRectSt6vectorIS2_SaIS2_EEEENS1_IPS2_S7_EEET0_T_SC_SB_
00002dec  w    F .text	00000038 _ZN9__gnu_cxx17__normal_iteratorIP6MyRectSt6vectorIS1_SaIS1_EEEppEv
00020e30 g     O .rwdata	00000008 alt_alarm_list
0001d5a0 g     F .text	00000064 _do_ctors
00014a2c g     F .text	00000014 __sigtramp
0001e8c0  w    O .rodata	0000000c _ZTISt16invalid_argument
0000b93c  w    F .text	00000034 _ZNSsC2IN9__gnu_cxx17__normal_iteratorIPcSsEEEET_S4_RKSaIcE
0000466c g     F .text	00000048 _Z5myMaxii
00005fac  w    F .text	00000028 _ZNKSt6vectorIiSaIiEE8max_sizeEv
00009c58  w    F .text	0000001c _ZNKSs11_M_disjunctEPKc
0001b030 g     F .text	000000fc close
0000d464  w    F .text	00000034 _ZNSs4swapERSs
00005cd8  w    F .text	00000034 _ZN9__gnu_cxx17__normal_iteratorIPiSt6vectorIiSaIiEEEC1ERKS1_
0000f598 g     F .text	00000064 __addsf3
0000abf0  w    F .text	0000003c _ZNSsC1EmcRKSaIcE
0000933c g     F .text	000000b0 _ZNSt11logic_errorC1ERKSs
0001b62c g     F .text	00000080 alt_load
00011194 g     F .text	00000314 __pack_d
00009c80  w    F .text	00000010 _ZNSsC1Ev
0000f140 g     F .text	00000010 _ZNKSt9type_info10__do_catchEPKS_PPvj
00006b24  w    F .text	000000a4 _ZNSt6vectorIiSaIiEEC1EmRKiRKS0_
00006bc8  w    F .text	0000007c _ZNSt6vectorIiSaIiEED1Ev
000148f0 g     F .text	00000014 raise
0000958c g     F .text	00000030 _ZNSt16invalid_argumentC2ERKSs
00013178 g     F .text	00000014 free
00011bf8 g     F .text	00000004 __sinit_lock_acquire
0000952c g     F .text	00000030 _ZNSt12length_errorC2ERKSs
00019900 g     F .text	00000100 __multadd
0000f214 g     F .text	00000034 _ZN10__cxxabiv117__class_type_infoD0Ev
00018c4c g     F .text	00000028 _Bfree
0001d0dc g     F .text	00000218 alt_hostfs_fstat
0000bfa4  w    F .text	0000010c _ZNSs6appendEPKcm
00009624 g     F .text	000000b0 _ZNSt13runtime_errorC1ERKSs
0000b3a8  w    F .text	000000ec _ZNSsC1ERKSsmm



Disassembly of section .entry:

00000000 <__reset>:
#if NIOS2_ICACHE_SIZE > 0 && defined(ALT_ALLOW_CODE_AT_RESET) && !defined(ALT_SIM_OPTIMIZE)
    /* Assume the instruction cache size is always a power of two. */
#if NIOS2_ICACHE_SIZE > 0x8000
    movhi r2, %hi(NIOS2_ICACHE_SIZE)
#else
    movui r2, NIOS2_ICACHE_SIZE
   0:	00840014 	movui	r2,4096
#endif

0:
    initi r2
   4:	1001483a 	initi	r2
    addi r2, r2, -NIOS2_ICACHE_LINE_SIZE
   8:	10bff804 	addi	r2,r2,-32
    bgt r2, zero, 0b
   c:	00bffd16 	blt	zero,r2,4 <__reset+0x4>
 * Jump to the _start entry point in the .text section if reset code
 * is allowed or if optimizing for RTL simulation.
 */
#if defined(ALT_ALLOW_CODE_AT_RESET) || defined(ALT_SIM_OPTIMIZE)
    /* Jump to the _start entry point in the .text section. */
    movhi r1, %hi(_start)
  10:	00400034 	movhi	at,0
    ori r1, r1, %lo(_start)
  14:	08406d14 	ori	at,at,436
    jmp r1
  18:	0800683a 	jmp	at
  1c:	00000000 	call	0 <__reset>

Disassembly of section .exceptions:

00000020 <alt_exception>:
         * Process an exception.  For all exceptions we must preserve all
         * caller saved registers on the stack (See the Nios2 ABI
         * documentation for details).
         */

        addi  sp, sp, -76
  20:	deffed04 	addi	sp,sp,-76

#endif

#endif

        stw   ra,  0(sp)
  24:	dfc00015 	stw	ra,0(sp)
        /*
         * Leave a gap in the stack frame at 4(sp) for the muldiv handler to
         * store zero into.
         */

        stw   r1,   8(sp)
  28:	d8400215 	stw	at,8(sp)
        stw   r2,  12(sp)
  2c:	d8800315 	stw	r2,12(sp)
        stw   r3,  16(sp)
  30:	d8c00415 	stw	r3,16(sp)
        stw   r4,  20(sp)
  34:	d9000515 	stw	r4,20(sp)
        stw   r5,  24(sp)
  38:	d9400615 	stw	r5,24(sp)
        stw   r6,  28(sp)
  3c:	d9800715 	stw	r6,28(sp)
        stw   r7,  32(sp)
  40:	d9c00815 	stw	r7,32(sp)

        rdctl r5, estatus
  44:	000b307a 	rdctl	r5,estatus

        stw   r8,  36(sp)
  48:	da000915 	stw	r8,36(sp)
        stw   r9,  40(sp)
  4c:	da400a15 	stw	r9,40(sp)
        stw   r10, 44(sp)
  50:	da800b15 	stw	r10,44(sp)
        stw   r11, 48(sp)
  54:	dac00c15 	stw	r11,48(sp)
        stw   r12, 52(sp)
  58:	db000d15 	stw	r12,52(sp)
        stw   r13, 56(sp)
  5c:	db400e15 	stw	r13,56(sp)
        stw   r14, 60(sp)
  60:	db800f15 	stw	r14,60(sp)
        stw   r15, 64(sp)
  64:	dbc01015 	stw	r15,64(sp)
        /*
         * ea-4 contains the address of the instruction being executed
         * when the exception occured. For interrupt exceptions, we will
         * will be re-issue the isntruction. Store it in 72(sp)
         */
        stw   r5,  68(sp)  /* estatus */
  68:	d9401115 	stw	r5,68(sp)
        addi  r15, ea, -4  /* instruction that caused exception */
  6c:	ebffff04 	addi	r15,ea,-4
        stw   r15,  72(sp)
  70:	dbc01215 	stw	r15,72(sp)
#else
        /*
         * Test to see if the exception was a software exception or caused 
         * by an external interrupt, and vector accordingly.
         */
        rdctl r4, ipending
  74:	0009313a 	rdctl	r4,ipending
        andi  r2, r5, 1
  78:	2880004c 	andi	r2,r5,1
        beq   r2, zero, .Lnot_irq
  7c:	10000326 	beq	r2,zero,8c <alt_exception+0x6c>
        beq   r4, zero, .Lnot_irq
  80:	20000226 	beq	r4,zero,8c <alt_exception+0x6c>
        /*
         * Now that all necessary registers have been preserved, call 
         * alt_irq_handler() to process the interrupts.
         */

        call alt_irq_handler
  84:	00000ec0 	call	ec <alt_irq_handler>

        .section .exceptions.irqreturn, "xa"

        br    .Lexception_exit
  88:	00000306 	br	98 <alt_exception+0x78>
         * upon completion, so we write ea (address of instruction *after*
         * the one where the exception occured) into 72(sp). The actual
         * instruction that caused the exception is written in r2, which these
         * handlers will utilize.
         */
        stw   ea,  72(sp)  /* Don't re-issue */
  8c:	df401215 	stw	ea,72(sp)
        ldw   r2, -4(ea)   /* Instruction that caused exception */
  90:	e8bfff17 	ldw	r2,-4(ea)
#ifdef NIOS2_HAS_DEBUG_STUB
       /*
        *  Either tell the user now (if there is a debugger attached) or go into
        *  the debug monitor which will loop until a debugger is attached.
        */
        break
  94:	003da03a 	break	0
        /* 
         * Restore the saved registers, so that all general purpose registers 
         * have been restored to their state at the time the interrupt occured.
         */

        ldw   r5,  68(sp)
  98:	d9401117 	ldw	r5,68(sp)
        ldw   ea,  72(sp)  /* This becomes the PC once eret is executed */
  9c:	df401217 	ldw	ea,72(sp)
        ldw   ra,   0(sp)
  a0:	dfc00017 	ldw	ra,0(sp)

        wrctl estatus, r5
  a4:	2801707a 	wrctl	estatus,r5

        ldw   r1,   8(sp)
  a8:	d8400217 	ldw	at,8(sp)
        ldw   r2,  12(sp)
  ac:	d8800317 	ldw	r2,12(sp)
        ldw   r3,  16(sp)
  b0:	d8c00417 	ldw	r3,16(sp)
        ldw   r4,  20(sp)
  b4:	d9000517 	ldw	r4,20(sp)
        ldw   r5,  24(sp)
  b8:	d9400617 	ldw	r5,24(sp)
        ldw   r6,  28(sp)
  bc:	d9800717 	ldw	r6,28(sp)
        ldw   r7,  32(sp)
  c0:	d9c00817 	ldw	r7,32(sp)
#ifdef ALT_STACK_CHECK
        ldw   et, %gprel(alt_exception_old_stack_limit)(gp)
#endif
#endif

        ldw   r8,  36(sp)
  c4:	da000917 	ldw	r8,36(sp)
        ldw   r9,  40(sp)
  c8:	da400a17 	ldw	r9,40(sp)
        ldw   r10, 44(sp)
  cc:	da800b17 	ldw	r10,44(sp)
        ldw   r11, 48(sp)
  d0:	dac00c17 	ldw	r11,48(sp)
        ldw   r12, 52(sp)
  d4:	db000d17 	ldw	r12,52(sp)
        ldw   r13, 56(sp)
  d8:	db400e17 	ldw	r13,56(sp)
        ldw   r14, 60(sp)
  dc:	db800f17 	ldw	r14,60(sp)
        ldw   r15, 64(sp)
  e0:	dbc01017 	ldw	r15,64(sp)
#endif

        ldw   sp,  76(sp)

#else
        addi  sp, sp, 76
  e4:	dec01304 	addi	sp,sp,76

        /*
         * Return to the interrupted instruction.
         */

        eret
  e8:	ef80083a 	eret

000000ec <alt_irq_handler>:
 * instruction is present if the macro ALT_CI_INTERRUPT_VECTOR defined.
 */

void alt_irq_handler (void) __attribute__ ((section (".exceptions")));
void alt_irq_handler (void)
{
  ec:	defff904 	addi	sp,sp,-28
  f0:	dfc00615 	stw	ra,24(sp)
  f4:	df000515 	stw	fp,20(sp)
  f8:	df000504 	addi	fp,sp,20
#ifndef NIOS2_EIC_PRESENT
static ALT_INLINE alt_u32 ALT_ALWAYS_INLINE alt_irq_pending (void)
{
  alt_u32 active;

  NIOS2_READ_IPENDING (active);
  fc:	0005313a 	rdctl	r2,ipending
 100:	e0bffc15 	stw	r2,-16(fp)

  return active;
 104:	e0bffc17 	ldw	r2,-16(fp)
   * Consider the case where the high priority interupt is asserted during
   * the interrupt entry sequence for a lower priority interrupt to see why
   * this is the case.
   */

  active = alt_irq_pending ();
 108:	e0bfff15 	stw	r2,-4(fp)

  do
  {
    i = 0;
 10c:	e03ffd15 	stw	zero,-12(fp)
    mask = 1;
 110:	00800044 	movi	r2,1
 114:	e0bffe15 	stw	r2,-8(fp)
     * called to clear the interrupt condition.
     */

    do
    {
      if (active & mask)
 118:	e0ffff17 	ldw	r3,-4(fp)
 11c:	e0bffe17 	ldw	r2,-8(fp)
 120:	1884703a 	and	r2,r3,r2
 124:	1005003a 	cmpeq	r2,r2,zero
 128:	1000161e 	bne	r2,zero,184 <alt_irq_handler+0x98>
      { 
#ifdef ALT_ENHANCED_INTERRUPT_API_PRESENT
        alt_irq[i].handler(alt_irq[i].context); 
 12c:	e0bffd17 	ldw	r2,-12(fp)
 130:	00c000b4 	movhi	r3,2
 134:	18cc8d04 	addi	r3,r3,12852
 138:	100490fa 	slli	r2,r2,3
 13c:	10c5883a 	add	r2,r2,r3
 140:	11400017 	ldw	r5,0(r2)
 144:	e0bffd17 	ldw	r2,-12(fp)
 148:	00c000b4 	movhi	r3,2
 14c:	18cc8d04 	addi	r3,r3,12852
 150:	100490fa 	slli	r2,r2,3
 154:	10c5883a 	add	r2,r2,r3
 158:	10800104 	addi	r2,r2,4
 15c:	11000017 	ldw	r4,0(r2)
 160:	283ee83a 	callr	r5
#ifndef NIOS2_EIC_PRESENT
static ALT_INLINE alt_u32 ALT_ALWAYS_INLINE alt_irq_pending (void)
{
  alt_u32 active;

  NIOS2_READ_IPENDING (active);
 164:	0005313a 	rdctl	r2,ipending
 168:	e0bffb15 	stw	r2,-20(fp)

  return active;
 16c:	e0bffb17 	ldw	r2,-20(fp)
      mask <<= 1;
      i++;

    } while (1);

    active = alt_irq_pending ();
 170:	e0bfff15 	stw	r2,-4(fp)
    
  } while (active);
 174:	e0bfff17 	ldw	r2,-4(fp)
 178:	1004c03a 	cmpne	r2,r2,zero
 17c:	103fe31e 	bne	r2,zero,10c <alt_irq_handler+0x20>
 180:	00000706 	br	1a0 <alt_irq_handler+0xb4>
#else
        alt_irq[i].handler(alt_irq[i].context, i); 
#endif
        break;
      }
      mask <<= 1;
 184:	e0bffe17 	ldw	r2,-8(fp)
 188:	1085883a 	add	r2,r2,r2
 18c:	e0bffe15 	stw	r2,-8(fp)
      i++;
 190:	e0bffd17 	ldw	r2,-12(fp)
 194:	10800044 	addi	r2,r2,1
 198:	e0bffd15 	stw	r2,-12(fp)

    } while (1);
 19c:	003fde06 	br	118 <alt_irq_handler+0x2c>
  /*
   * Notify the operating system that interrupt processing is complete.
   */ 

  ALT_OS_INT_EXIT();
}
 1a0:	e037883a 	mov	sp,fp
 1a4:	dfc00117 	ldw	ra,4(sp)
 1a8:	df000017 	ldw	fp,0(sp)
 1ac:	dec00204 	addi	sp,sp,8
 1b0:	f800283a 	ret

Disassembly of section .text:

000001b4 <_start>:

    /* Assume the data cache size is always a power of two. */
#if NIOS2_DCACHE_SIZE > 0x8000
    movhi r2, %hi(NIOS2_DCACHE_SIZE)
#else
    movui r2, NIOS2_DCACHE_SIZE
     1b4:	00820014 	movui	r2,2048
#endif

0:
    initd 0(r2)
     1b8:	10000033 	initd	0(r2)
    addi r2, r2, -NIOS2_DCACHE_LINE_SIZE
     1bc:	10bff804 	addi	r2,r2,-32
    bgt r2, zero, 0b
     1c0:	00bffd16 	blt	zero,r2,1b8 <_start+0x4>
#if (NIOS2_NUM_OF_SHADOW_REG_SETS == 0)    
    /*
     * Now that the caches are initialized, set up the stack pointer.
     * The value provided by the linker is assumed to be correctly aligned.
     */
    movhi sp, %hi(__alt_stack_pointer)
     1c4:	06c08034 	movhi	sp,512
    ori sp, sp, %lo(__alt_stack_pointer)
     1c8:	dec00014 	ori	sp,sp,0

    /* Set up the global pointer. */
    movhi gp, %hi(_gp)
     1cc:	068000b4 	movhi	gp,2
    ori gp, gp, %lo(_gp)
     1d0:	d6a36114 	ori	gp,gp,36228
 */
#ifndef ALT_SIM_OPTIMIZE
    /* Log that the BSS is about to be cleared. */
    ALT_LOG_PUTS(alt_log_msg_bss)

    movhi r2, %hi(__bss_start)
     1d4:	008000b4 	movhi	r2,2
    ori r2, r2, %lo(__bss_start)
     1d8:	108a6114 	ori	r2,r2,10628

    movhi r3, %hi(__bss_end)
     1dc:	00c000b4 	movhi	r3,2
    ori r3, r3, %lo(__bss_end)
     1e0:	18cd3114 	ori	r3,r3,13508

    beq r2, r3, 1f
     1e4:	10c00326 	beq	r2,r3,1f4 <_start+0x40>

0:
    stw zero, (r2)
     1e8:	10000015 	stw	zero,0(r2)
    addi r2, r2, 4
     1ec:	10800104 	addi	r2,r2,4
    bltu r2, r3, 0b
     1f0:	10fffd36 	bltu	r2,r3,1e8 <_start+0x34>
     * section aren't defined until alt_load() has been called).
     */
    mov   et, zero
#endif

    call alt_load
     1f4:	001b62c0 	call	1b62c <alt_load>

    /* Log that alt_main is about to be called. */
    ALT_LOG_PUTS(alt_log_msg_alt_main)

    /* Call the C entry point. It should never return. */
    call alt_main
     1f8:	001b8680 	call	1b868 <alt_main>

000001fc <alt_after_alt_main>:

    /* Wait in infinite loop in case alt_main does return. */
alt_after_alt_main:
    br alt_after_alt_main
     1fc:	003fff06 	br	1fc <alt_after_alt_main>

00000200 <strrev>:
#include <ctype.h>
#include "image.h"
#include "stdio-wrapper.h"

char* strrev(char* str)
{
     200:	defffa04 	addi	sp,sp,-24
     204:	dfc00515 	stw	ra,20(sp)
     208:	df000415 	stw	fp,16(sp)
     20c:	df000404 	addi	fp,sp,16
     210:	e13ffe15 	stw	r4,-8(fp)
	char *p1, *p2;
	if (!str || !*str)
     214:	e0bffe17 	ldw	r2,-8(fp)
     218:	1005003a 	cmpeq	r2,r2,zero
     21c:	1000071e 	bne	r2,zero,23c <strrev+0x3c>
     220:	e0bffe17 	ldw	r2,-8(fp)
     224:	10800003 	ldbu	r2,0(r2)
     228:	10803fcc 	andi	r2,r2,255
     22c:	1080201c 	xori	r2,r2,128
     230:	10bfe004 	addi	r2,r2,-128
     234:	1004c03a 	cmpne	r2,r2,zero
     238:	1000031e 	bne	r2,zero,248 <strrev+0x48>
		return str;
     23c:	e0bffe17 	ldw	r2,-8(fp)
     240:	e0bfff15 	stw	r2,-4(fp)
     244:	00002d06 	br	2fc <strrev+0xfc>
	for (p1 = str, p2 = str + strlen(str) - 1; p2 > p1; ++p1, --p2)
     248:	e0bffe17 	ldw	r2,-8(fp)
     24c:	e0bffd15 	stw	r2,-12(fp)
     250:	e13ffe17 	ldw	r4,-8(fp)
     254:	0014cc00 	call	14cc0 <strlen>
     258:	1007883a 	mov	r3,r2
     25c:	e0bffe17 	ldw	r2,-8(fp)
     260:	1885883a 	add	r2,r3,r2
     264:	10bfffc4 	addi	r2,r2,-1
     268:	e0bffc15 	stw	r2,-16(fp)
     26c:	00001e06 	br	2e8 <strrev+0xe8>
	{
		*p1 ^= *p2;
     270:	e0bffd17 	ldw	r2,-12(fp)
     274:	10c00003 	ldbu	r3,0(r2)
     278:	e0bffc17 	ldw	r2,-16(fp)
     27c:	10800003 	ldbu	r2,0(r2)
     280:	1884f03a 	xor	r2,r3,r2
     284:	1007883a 	mov	r3,r2
     288:	e0bffd17 	ldw	r2,-12(fp)
     28c:	10c00005 	stb	r3,0(r2)
		*p2 ^= *p1;
     290:	e0bffc17 	ldw	r2,-16(fp)
     294:	10c00003 	ldbu	r3,0(r2)
     298:	e0bffd17 	ldw	r2,-12(fp)
     29c:	10800003 	ldbu	r2,0(r2)
     2a0:	1884f03a 	xor	r2,r3,r2
     2a4:	1007883a 	mov	r3,r2
     2a8:	e0bffc17 	ldw	r2,-16(fp)
     2ac:	10c00005 	stb	r3,0(r2)
		*p1 ^= *p2;
     2b0:	e0bffd17 	ldw	r2,-12(fp)
     2b4:	10c00003 	ldbu	r3,0(r2)
     2b8:	e0bffc17 	ldw	r2,-16(fp)
     2bc:	10800003 	ldbu	r2,0(r2)
     2c0:	1884f03a 	xor	r2,r3,r2
     2c4:	1007883a 	mov	r3,r2
     2c8:	e0bffd17 	ldw	r2,-12(fp)
     2cc:	10c00005 	stb	r3,0(r2)
char* strrev(char* str)
{
	char *p1, *p2;
	if (!str || !*str)
		return str;
	for (p1 = str, p2 = str + strlen(str) - 1; p2 > p1; ++p1, --p2)
     2d0:	e0bffd17 	ldw	r2,-12(fp)
     2d4:	10800044 	addi	r2,r2,1
     2d8:	e0bffd15 	stw	r2,-12(fp)
     2dc:	e0bffc17 	ldw	r2,-16(fp)
     2e0:	10bfffc4 	addi	r2,r2,-1
     2e4:	e0bffc15 	stw	r2,-16(fp)
     2e8:	e0fffc17 	ldw	r3,-16(fp)
     2ec:	e0bffd17 	ldw	r2,-12(fp)
     2f0:	10ffdf36 	bltu	r2,r3,270 <strrev+0x70>
	{
		*p1 ^= *p2;
		*p2 ^= *p1;
		*p1 ^= *p2;
	}
	return str;
     2f4:	e0bffe17 	ldw	r2,-8(fp)
     2f8:	e0bfff15 	stw	r2,-4(fp)
     2fc:	e0bfff17 	ldw	r2,-4(fp)
}
     300:	e037883a 	mov	sp,fp
     304:	dfc00117 	ldw	ra,4(sp)
     308:	df000017 	ldw	fp,0(sp)
     30c:	dec00204 	addi	sp,sp,8
     310:	f800283a 	ret

00000314 <myatoi>:
//	}
//	return(i);
//}

int myatoi (char* string)
{
     314:	defff904 	addi	sp,sp,-28
     318:	dfc00615 	stw	ra,24(sp)
     31c:	df000515 	stw	fp,20(sp)
     320:	df000504 	addi	fp,sp,20
     324:	e13fff15 	stw	r4,-4(fp)
	int sign = 1;
     328:	00800044 	movi	r2,1
     32c:	e0bffe15 	stw	r2,-8(fp)
	// how many characters in the string
	int length = strlen(string);
     330:	e13fff17 	ldw	r4,-4(fp)
     334:	0014cc00 	call	14cc0 <strlen>
     338:	e0bffd15 	stw	r2,-12(fp)
	int i = 0;
     33c:	e03ffc15 	stw	zero,-16(fp)
	int number = 0;
     340:	e03ffb15 	stw	zero,-20(fp)

	// handle sign
	if (string[0] == '-')
     344:	e0bfff17 	ldw	r2,-4(fp)
     348:	10800003 	ldbu	r2,0(r2)
     34c:	10803fcc 	andi	r2,r2,255
     350:	1080201c 	xori	r2,r2,128
     354:	10bfe004 	addi	r2,r2,-128
     358:	10800b58 	cmpnei	r2,r2,45
     35c:	1000201e 	bne	r2,zero,3e0 <myatoi+0xcc>
	{
		sign = -1;
     360:	00bfffc4 	movi	r2,-1
     364:	e0bffe15 	stw	r2,-8(fp)
		i++;
     368:	e0bffc17 	ldw	r2,-16(fp)
     36c:	10800044 	addi	r2,r2,1
     370:	e0bffc15 	stw	r2,-16(fp)
	}

//	for (i; i < length; i++)
	while(i < length)
     374:	00001a06 	br	3e0 <myatoi+0xcc>
	{
		// handle the decimal place if there is one
		if (string[i] == '.')
     378:	e0bffc17 	ldw	r2,-16(fp)
     37c:	1007883a 	mov	r3,r2
     380:	e0bfff17 	ldw	r2,-4(fp)
     384:	1885883a 	add	r2,r3,r2
     388:	10800003 	ldbu	r2,0(r2)
     38c:	10803fcc 	andi	r2,r2,255
     390:	1080201c 	xori	r2,r2,128
     394:	10bfe004 	addi	r2,r2,-128
     398:	10800ba0 	cmpeqi	r2,r2,46
     39c:	1000131e 	bne	r2,zero,3ec <myatoi+0xd8>
			break;
		number = number * 10 + (string[i]- 48);
     3a0:	e0bffb17 	ldw	r2,-20(fp)
     3a4:	110002a4 	muli	r4,r2,10
     3a8:	e0bffc17 	ldw	r2,-16(fp)
     3ac:	1007883a 	mov	r3,r2
     3b0:	e0bfff17 	ldw	r2,-4(fp)
     3b4:	1885883a 	add	r2,r3,r2
     3b8:	10800003 	ldbu	r2,0(r2)
     3bc:	10803fcc 	andi	r2,r2,255
     3c0:	1080201c 	xori	r2,r2,128
     3c4:	10bfe004 	addi	r2,r2,-128
     3c8:	2085883a 	add	r2,r4,r2
     3cc:	10bff404 	addi	r2,r2,-48
     3d0:	e0bffb15 	stw	r2,-20(fp)
		i++;
     3d4:	e0bffc17 	ldw	r2,-16(fp)
     3d8:	10800044 	addi	r2,r2,1
     3dc:	e0bffc15 	stw	r2,-16(fp)
		sign = -1;
		i++;
	}

//	for (i; i < length; i++)
	while(i < length)
     3e0:	e0fffc17 	ldw	r3,-16(fp)
     3e4:	e0bffd17 	ldw	r2,-12(fp)
     3e8:	18bfe316 	blt	r3,r2,378 <myatoi+0x64>
			break;
		number = number * 10 + (string[i]- 48);
		i++;
	}

	number *= sign;
     3ec:	e0fffb17 	ldw	r3,-20(fp)
     3f0:	e0bffe17 	ldw	r2,-8(fp)
     3f4:	1885383a 	mul	r2,r3,r2
     3f8:	e0bffb15 	stw	r2,-20(fp)

	return number;
     3fc:	e0bffb17 	ldw	r2,-20(fp)
}
     400:	e037883a 	mov	sp,fp
     404:	dfc00117 	ldw	ra,4(sp)
     408:	df000017 	ldw	fp,0(sp)
     40c:	dec00204 	addi	sp,sp,8
     410:	f800283a 	ret

00000414 <itochar>:

void itochar(int x, char* szBuffer, int radix)
{
     414:	defff804 	addi	sp,sp,-32
     418:	dfc00715 	stw	ra,28(sp)
     41c:	df000615 	stw	fp,24(sp)
     420:	df000604 	addi	fp,sp,24
     424:	e13ffd15 	stw	r4,-12(fp)
     428:	e17ffe15 	stw	r5,-8(fp)
     42c:	e1bfff15 	stw	r6,-4(fp)
	int i = 0, n, xx;
     430:	e03ffc15 	stw	zero,-16(fp)
	n = x;
     434:	e0bffd17 	ldw	r2,-12(fp)
     438:	e0bffb15 	stw	r2,-20(fp)
	while (n > 0)
     43c:	00001206 	br	488 <itochar+0x74>
	{
		xx = n%radix;
     440:	e13ffb17 	ldw	r4,-20(fp)
     444:	e17fff17 	ldw	r5,-4(fp)
     448:	00107f40 	call	107f4 <__modsi3>
     44c:	e0bffa15 	stw	r2,-24(fp)
		n = n/radix;
     450:	e13ffb17 	ldw	r4,-20(fp)
     454:	e17fff17 	ldw	r5,-4(fp)
     458:	00107940 	call	10794 <__divsi3>
     45c:	e0bffb15 	stw	r2,-20(fp)
		szBuffer[i++] = '0' + xx;
     460:	e0bffc17 	ldw	r2,-16(fp)
     464:	1007883a 	mov	r3,r2
     468:	e0bffe17 	ldw	r2,-8(fp)
     46c:	1887883a 	add	r3,r3,r2
     470:	e0bffa17 	ldw	r2,-24(fp)
     474:	10800c04 	addi	r2,r2,48
     478:	18800005 	stb	r2,0(r3)
     47c:	e0bffc17 	ldw	r2,-16(fp)
     480:	10800044 	addi	r2,r2,1
     484:	e0bffc15 	stw	r2,-16(fp)

void itochar(int x, char* szBuffer, int radix)
{
	int i = 0, n, xx;
	n = x;
	while (n > 0)
     488:	e0bffb17 	ldw	r2,-20(fp)
     48c:	10800048 	cmpgei	r2,r2,1
     490:	103feb1e 	bne	r2,zero,440 <itochar+0x2c>
	{
		xx = n%radix;
		n = n/radix;
		szBuffer[i++] = '0' + xx;
	}
	szBuffer[i] = '\0';
     494:	e0bffc17 	ldw	r2,-16(fp)
     498:	1007883a 	mov	r3,r2
     49c:	e0bffe17 	ldw	r2,-8(fp)
     4a0:	1885883a 	add	r2,r3,r2
     4a4:	10000005 	stb	zero,0(r2)
	strrev(szBuffer);
     4a8:	e13ffe17 	ldw	r4,-8(fp)
     4ac:	00002000 	call	200 <strrev>
}
     4b0:	e037883a 	mov	sp,fp
     4b4:	dfc00117 	ldw	ra,4(sp)
     4b8:	df000017 	ldw	fp,0(sp)
     4bc:	dec00204 	addi	sp,sp,8
     4c0:	f800283a 	ret

000004c4 <readImage>:
	}
	fclose(in_file);
	return 0;
}*/

int readImage(int x1, int y1, int x2, int y2, MyImage* image){
     4c4:	defff504 	addi	sp,sp,-44
     4c8:	dfc00a15 	stw	ra,40(sp)
     4cc:	df000915 	stw	fp,36(sp)
     4d0:	df000904 	addi	fp,sp,36
     4d4:	e13ffc15 	stw	r4,-16(fp)
     4d8:	e17ffd15 	stw	r5,-12(fp)
     4dc:	e1bffe15 	stw	r6,-8(fp)
     4e0:	e1ffff15 	stw	r7,-4(fp)
	int offset, i=0, row, col;
     4e4:	e03ffa15 	stw	zero,-24(fp)
	volatile short * sram = (short *)  0x02000000;
     4e8:	00808034 	movhi	r2,512
     4ec:	e0bff715 	stw	r2,-36(fp)
	image->data = (unsigned char*)malloc(sizeof(unsigned char)*(x2*y2));
     4f0:	e0fffe17 	ldw	r3,-8(fp)
     4f4:	e0bfff17 	ldw	r2,-4(fp)
     4f8:	1885383a 	mul	r2,r3,r2
     4fc:	1009883a 	mov	r4,r2
     500:	001318c0 	call	1318c <malloc>
     504:	1007883a 	mov	r3,r2
     508:	e0800217 	ldw	r2,8(fp)
     50c:	10c00315 	stw	r3,12(r2)

	image->height = y2;
     510:	e0c00217 	ldw	r3,8(fp)
     514:	e0bfff17 	ldw	r2,-4(fp)
     518:	18800115 	stw	r2,4(r3)
	image->width = x2;
     51c:	e0c00217 	ldw	r3,8(fp)
     520:	e0bffe17 	ldw	r2,-8(fp)
     524:	18800015 	stw	r2,0(r3)
	image->flag = 1;
     528:	e0c00217 	ldw	r3,8(fp)
     52c:	00800044 	movi	r2,1
     530:	18800415 	stw	r2,16(r3)
	image->maxgrey = 255;
     534:	e0c00217 	ldw	r3,8(fp)
     538:	00803fc4 	movi	r2,255
     53c:	18800215 	stw	r2,8(r3)

	for(row = y1; row < y2; row++){
     540:	e0bffd17 	ldw	r2,-12(fp)
     544:	e0bff915 	stw	r2,-28(fp)
     548:	00001f06 	br	5c8 <readImage+0x104>
		for(col = x1; col < x2; col++){
     54c:	e0bffc17 	ldw	r2,-16(fp)
     550:	e0bff815 	stw	r2,-32(fp)
     554:	00001606 	br	5b0 <readImage+0xec>
			offset = (row << 8) + col;
     558:	e0bff917 	ldw	r2,-28(fp)
     55c:	1006923a 	slli	r3,r2,8
     560:	e0bff817 	ldw	r2,-32(fp)
     564:	1885883a 	add	r2,r3,r2
     568:	e0bffb15 	stw	r2,-20(fp)
			image->data[i] = (unsigned char) *(sram + offset);
     56c:	e0800217 	ldw	r2,8(fp)
     570:	10c00317 	ldw	r3,12(r2)
     574:	e0bffa17 	ldw	r2,-24(fp)
     578:	1889883a 	add	r4,r3,r2
     57c:	e0bffb17 	ldw	r2,-20(fp)
     580:	1085883a 	add	r2,r2,r2
     584:	1007883a 	mov	r3,r2
     588:	e0bff717 	ldw	r2,-36(fp)
     58c:	1885883a 	add	r2,r3,r2
     590:	1080000b 	ldhu	r2,0(r2)
     594:	20800005 	stb	r2,0(r4)
			i++;
     598:	e0bffa17 	ldw	r2,-24(fp)
     59c:	10800044 	addi	r2,r2,1
     5a0:	e0bffa15 	stw	r2,-24(fp)
	image->width = x2;
	image->flag = 1;
	image->maxgrey = 255;

	for(row = y1; row < y2; row++){
		for(col = x1; col < x2; col++){
     5a4:	e0bff817 	ldw	r2,-32(fp)
     5a8:	10800044 	addi	r2,r2,1
     5ac:	e0bff815 	stw	r2,-32(fp)
     5b0:	e0fff817 	ldw	r3,-32(fp)
     5b4:	e0bffe17 	ldw	r2,-8(fp)
     5b8:	18bfe716 	blt	r3,r2,558 <readImage+0x94>
	image->height = y2;
	image->width = x2;
	image->flag = 1;
	image->maxgrey = 255;

	for(row = y1; row < y2; row++){
     5bc:	e0bff917 	ldw	r2,-28(fp)
     5c0:	10800044 	addi	r2,r2,1
     5c4:	e0bff915 	stw	r2,-28(fp)
     5c8:	e0fff917 	ldw	r3,-28(fp)
     5cc:	e0bfff17 	ldw	r2,-4(fp)
     5d0:	18bfde16 	blt	r3,r2,54c <readImage+0x88>
			image->data[i] = (unsigned char) *(sram + offset);
			i++;
		}
	}

	return 0;
     5d4:	0005883a 	mov	r2,zero
}
     5d8:	e037883a 	mov	sp,fp
     5dc:	dfc00117 	ldw	ra,4(sp)
     5e0:	df000017 	ldw	fp,0(sp)
     5e4:	dec00204 	addi	sp,sp,8
     5e8:	f800283a 	ret

000005ec <writePgm>:

int writePgm(char *fileName, MyImage *image)
{
     5ec:	defff604 	addi	sp,sp,-40
     5f0:	dfc00915 	stw	ra,36(sp)
     5f4:	df000815 	stw	fp,32(sp)
     5f8:	df000804 	addi	fp,sp,32
     5fc:	e13ffd15 	stw	r4,-12(fp)
     600:	e17ffe15 	stw	r5,-8(fp)
	char parameters_str[5];
	int i;
	const char *format = "P5";
     604:	008000b4 	movhi	r2,2
     608:	10b98404 	addi	r2,r2,-6640
     60c:	e0bff915 	stw	r2,-28(fp)
	if (image->flag == 0)
     610:	e0bffe17 	ldw	r2,-8(fp)
     614:	10800417 	ldw	r2,16(r2)
     618:	1004c03a 	cmpne	r2,r2,zero
     61c:	1000031e 	bne	r2,zero,62c <writePgm+0x40>
	{
		return -1;
     620:	00bfffc4 	movi	r2,-1
     624:	e0bfff15 	stw	r2,-4(fp)
     628:	00004f06 	br	768 <writePgm+0x17c>
	}
	FILE *fp = fopen(fileName, "w");
     62c:	e13ffd17 	ldw	r4,-12(fp)
     630:	014000b4 	movhi	r5,2
     634:	29798504 	addi	r5,r5,-6636
     638:	0011f4c0 	call	11f4c <fopen>
     63c:	e0bff815 	stw	r2,-32(fp)
	if (!fp)
     640:	e0bff817 	ldw	r2,-32(fp)
     644:	1004c03a 	cmpne	r2,r2,zero
     648:	1000071e 	bne	r2,zero,668 <writePgm+0x7c>
	{
		printf("Unable to open file %s\n", fileName);
     64c:	010000b4 	movhi	r4,2
     650:	21398604 	addi	r4,r4,-6632
     654:	e17ffd17 	ldw	r5,-12(fp)
     658:	0013cc80 	call	13cc8 <printf>
		return -1;
     65c:	00bfffc4 	movi	r2,-1
     660:	e0bfff15 	stw	r2,-4(fp)
     664:	00004006 	br	768 <writePgm+0x17c>
	}
	fputs(format, fp);
     668:	e13ff917 	ldw	r4,-28(fp)
     66c:	e17ff817 	ldw	r5,-32(fp)
     670:	00120980 	call	12098 <fputs>
	fputc('\n', fp);
     674:	01000284 	movi	r4,10
     678:	e17ff817 	ldw	r5,-32(fp)
     67c:	0011f680 	call	11f68 <fputc>

	itochar(image->width, parameters_str, 10);
     680:	e0bffe17 	ldw	r2,-8(fp)
     684:	11000017 	ldw	r4,0(r2)
     688:	e17ffb04 	addi	r5,fp,-20
     68c:	01800284 	movi	r6,10
     690:	00004140 	call	414 <itochar>
	fputs(parameters_str, fp);
     694:	e13ffb04 	addi	r4,fp,-20
     698:	e17ff817 	ldw	r5,-32(fp)
     69c:	00120980 	call	12098 <fputs>
	parameters_str[0] = 0;
     6a0:	e03ffb05 	stb	zero,-20(fp)
	fputc(' ', fp);
     6a4:	01000804 	movi	r4,32
     6a8:	e17ff817 	ldw	r5,-32(fp)
     6ac:	0011f680 	call	11f68 <fputc>

	itochar(image->height, parameters_str, 10);
     6b0:	e0bffe17 	ldw	r2,-8(fp)
     6b4:	11000117 	ldw	r4,4(r2)
     6b8:	e17ffb04 	addi	r5,fp,-20
     6bc:	01800284 	movi	r6,10
     6c0:	00004140 	call	414 <itochar>
	fputs(parameters_str, fp);
     6c4:	e13ffb04 	addi	r4,fp,-20
     6c8:	e17ff817 	ldw	r5,-32(fp)
     6cc:	00120980 	call	12098 <fputs>
	parameters_str[0] = 0;
     6d0:	e03ffb05 	stb	zero,-20(fp)
	fputc('\n', fp);
     6d4:	01000284 	movi	r4,10
     6d8:	e17ff817 	ldw	r5,-32(fp)
     6dc:	0011f680 	call	11f68 <fputc>

	itochar(image->maxgrey, parameters_str, 10);
     6e0:	e0bffe17 	ldw	r2,-8(fp)
     6e4:	11000217 	ldw	r4,8(r2)
     6e8:	e17ffb04 	addi	r5,fp,-20
     6ec:	01800284 	movi	r6,10
     6f0:	00004140 	call	414 <itochar>
	fputs(parameters_str, fp);
     6f4:	e13ffb04 	addi	r4,fp,-20
     6f8:	e17ff817 	ldw	r5,-32(fp)
     6fc:	00120980 	call	12098 <fputs>
	fputc('\n', fp);
     700:	01000284 	movi	r4,10
     704:	e17ff817 	ldw	r5,-32(fp)
     708:	0011f680 	call	11f68 <fputc>

	for (i = 0; i < (image->width * image->height); i++)
     70c:	e03ffa15 	stw	zero,-24(fp)
     710:	00000b06 	br	740 <writePgm+0x154>
	{
		fputc(image->data[i], fp);
     714:	e0bffe17 	ldw	r2,-8(fp)
     718:	10c00317 	ldw	r3,12(r2)
     71c:	e0bffa17 	ldw	r2,-24(fp)
     720:	1885883a 	add	r2,r3,r2
     724:	10800003 	ldbu	r2,0(r2)
     728:	11003fcc 	andi	r4,r2,255
     72c:	e17ff817 	ldw	r5,-32(fp)
     730:	0011f680 	call	11f68 <fputc>

	itochar(image->maxgrey, parameters_str, 10);
	fputs(parameters_str, fp);
	fputc('\n', fp);

	for (i = 0; i < (image->width * image->height); i++)
     734:	e0bffa17 	ldw	r2,-24(fp)
     738:	10800044 	addi	r2,r2,1
     73c:	e0bffa15 	stw	r2,-24(fp)
     740:	e0bffe17 	ldw	r2,-8(fp)
     744:	10c00017 	ldw	r3,0(r2)
     748:	e0bffe17 	ldw	r2,-8(fp)
     74c:	10800117 	ldw	r2,4(r2)
     750:	1887383a 	mul	r3,r3,r2
     754:	e0bffa17 	ldw	r2,-24(fp)
     758:	10ffee16 	blt	r2,r3,714 <writePgm+0x128>
	{
		fputc(image->data[i], fp);
	}
	fclose(fp);
     75c:	e13ff817 	ldw	r4,-32(fp)
     760:	00117e80 	call	117e8 <fclose>
	return 0;
     764:	e03fff15 	stw	zero,-4(fp)
     768:	e0bfff17 	ldw	r2,-4(fp)
}
     76c:	e037883a 	mov	sp,fp
     770:	dfc00117 	ldw	ra,4(sp)
     774:	df000017 	ldw	fp,0(sp)
     778:	dec00204 	addi	sp,sp,8
     77c:	f800283a 	ret

00000780 <cpyPgm>:

int cpyPgm(MyImage* src, MyImage* dst)
{
     780:	defffa04 	addi	sp,sp,-24
     784:	dfc00515 	stw	ra,20(sp)
     788:	df000415 	stw	fp,16(sp)
     78c:	df000404 	addi	fp,sp,16
     790:	e13ffd15 	stw	r4,-12(fp)
     794:	e17ffe15 	stw	r5,-8(fp)
	int i = 0;
     798:	e03ffc15 	stw	zero,-16(fp)
	if (src->flag == 0)
     79c:	e0bffd17 	ldw	r2,-12(fp)
     7a0:	10800417 	ldw	r2,16(r2)
     7a4:	1004c03a 	cmpne	r2,r2,zero
     7a8:	1000061e 	bne	r2,zero,7c4 <cpyPgm+0x44>
	{
		printf("No data available in the specified source image\n");
     7ac:	010000b4 	movhi	r4,2
     7b0:	21398c04 	addi	r4,r4,-6608
     7b4:	0013fcc0 	call	13fcc <puts>
		return -1;
     7b8:	00bfffc4 	movi	r2,-1
     7bc:	e0bfff15 	stw	r2,-4(fp)
     7c0:	00003006 	br	884 <cpyPgm+0x104>
	}
	dst->width = src->width;
     7c4:	e0bffd17 	ldw	r2,-12(fp)
     7c8:	10c00017 	ldw	r3,0(r2)
     7cc:	e0bffe17 	ldw	r2,-8(fp)
     7d0:	10c00015 	stw	r3,0(r2)
	dst->height = src->height;
     7d4:	e0bffd17 	ldw	r2,-12(fp)
     7d8:	10c00117 	ldw	r3,4(r2)
     7dc:	e0bffe17 	ldw	r2,-8(fp)
     7e0:	10c00115 	stw	r3,4(r2)
	dst->maxgrey = src->maxgrey;
     7e4:	e0bffd17 	ldw	r2,-12(fp)
     7e8:	10c00217 	ldw	r3,8(r2)
     7ec:	e0bffe17 	ldw	r2,-8(fp)
     7f0:	10c00215 	stw	r3,8(r2)
	dst->data = (unsigned char*)malloc(sizeof(unsigned char)*(dst->height*dst->width));
     7f4:	e0bffe17 	ldw	r2,-8(fp)
     7f8:	10c00117 	ldw	r3,4(r2)
     7fc:	e0bffe17 	ldw	r2,-8(fp)
     800:	10800017 	ldw	r2,0(r2)
     804:	1885383a 	mul	r2,r3,r2
     808:	1009883a 	mov	r4,r2
     80c:	001318c0 	call	1318c <malloc>
     810:	1007883a 	mov	r3,r2
     814:	e0bffe17 	ldw	r2,-8(fp)
     818:	10c00315 	stw	r3,12(r2)
	dst->flag = 1;
     81c:	e0fffe17 	ldw	r3,-8(fp)
     820:	00800044 	movi	r2,1
     824:	18800415 	stw	r2,16(r3)
	for (i = 0; i < (dst->width * dst->height); i++)
     828:	e03ffc15 	stw	zero,-16(fp)
     82c:	00000d06 	br	864 <cpyPgm+0xe4>
	{
		dst->data[i] = src->data[i];
     830:	e0bffe17 	ldw	r2,-8(fp)
     834:	10c00317 	ldw	r3,12(r2)
     838:	e0bffc17 	ldw	r2,-16(fp)
     83c:	1889883a 	add	r4,r3,r2
     840:	e0bffd17 	ldw	r2,-12(fp)
     844:	10c00317 	ldw	r3,12(r2)
     848:	e0bffc17 	ldw	r2,-16(fp)
     84c:	1885883a 	add	r2,r3,r2
     850:	10800003 	ldbu	r2,0(r2)
     854:	20800005 	stb	r2,0(r4)
	dst->width = src->width;
	dst->height = src->height;
	dst->maxgrey = src->maxgrey;
	dst->data = (unsigned char*)malloc(sizeof(unsigned char)*(dst->height*dst->width));
	dst->flag = 1;
	for (i = 0; i < (dst->width * dst->height); i++)
     858:	e0bffc17 	ldw	r2,-16(fp)
     85c:	10800044 	addi	r2,r2,1
     860:	e0bffc15 	stw	r2,-16(fp)
     864:	e0bffe17 	ldw	r2,-8(fp)
     868:	10c00017 	ldw	r3,0(r2)
     86c:	e0bffe17 	ldw	r2,-8(fp)
     870:	10800117 	ldw	r2,4(r2)
     874:	1887383a 	mul	r3,r3,r2
     878:	e0bffc17 	ldw	r2,-16(fp)
     87c:	10ffec16 	blt	r2,r3,830 <cpyPgm+0xb0>
	{
		dst->data[i] = src->data[i];
	}
}
     880:	00000106 	br	888 <cpyPgm+0x108>
     884:	e0bfff17 	ldw	r2,-4(fp)
     888:	e037883a 	mov	sp,fp
     88c:	dfc00117 	ldw	ra,4(sp)
     890:	df000017 	ldw	fp,0(sp)
     894:	dec00204 	addi	sp,sp,8
     898:	f800283a 	ret

0000089c <createImage>:


void createImage(int width, int height, MyImage *image)
{
     89c:	defffb04 	addi	sp,sp,-20
     8a0:	dfc00415 	stw	ra,16(sp)
     8a4:	df000315 	stw	fp,12(sp)
     8a8:	df000304 	addi	fp,sp,12
     8ac:	e13ffd15 	stw	r4,-12(fp)
     8b0:	e17ffe15 	stw	r5,-8(fp)
     8b4:	e1bfff15 	stw	r6,-4(fp)
	image->width = width;
     8b8:	e0ffff17 	ldw	r3,-4(fp)
     8bc:	e0bffd17 	ldw	r2,-12(fp)
     8c0:	18800015 	stw	r2,0(r3)
	image->height = height;
     8c4:	e0ffff17 	ldw	r3,-4(fp)
     8c8:	e0bffe17 	ldw	r2,-8(fp)
     8cc:	18800115 	stw	r2,4(r3)
	image->flag = 1;
     8d0:	e0ffff17 	ldw	r3,-4(fp)
     8d4:	00800044 	movi	r2,1
     8d8:	18800415 	stw	r2,16(r3)
	image->data = (unsigned char *)malloc(sizeof(unsigned char)*(height*width));
     8dc:	e0fffe17 	ldw	r3,-8(fp)
     8e0:	e0bffd17 	ldw	r2,-12(fp)
     8e4:	1885383a 	mul	r2,r3,r2
     8e8:	1009883a 	mov	r4,r2
     8ec:	001318c0 	call	1318c <malloc>
     8f0:	1007883a 	mov	r3,r2
     8f4:	e0bfff17 	ldw	r2,-4(fp)
     8f8:	10c00315 	stw	r3,12(r2)
}
     8fc:	e037883a 	mov	sp,fp
     900:	dfc00117 	ldw	ra,4(sp)
     904:	df000017 	ldw	fp,0(sp)
     908:	dec00204 	addi	sp,sp,8
     90c:	f800283a 	ret

00000910 <createSumImage>:

void createSumImage(int width, int height, MyIntImage *image)
{
     910:	defffb04 	addi	sp,sp,-20
     914:	dfc00415 	stw	ra,16(sp)
     918:	df000315 	stw	fp,12(sp)
     91c:	df000304 	addi	fp,sp,12
     920:	e13ffd15 	stw	r4,-12(fp)
     924:	e17ffe15 	stw	r5,-8(fp)
     928:	e1bfff15 	stw	r6,-4(fp)
	image->width = width;
     92c:	e0ffff17 	ldw	r3,-4(fp)
     930:	e0bffd17 	ldw	r2,-12(fp)
     934:	18800015 	stw	r2,0(r3)
	image->height = height;
     938:	e0ffff17 	ldw	r3,-4(fp)
     93c:	e0bffe17 	ldw	r2,-8(fp)
     940:	18800115 	stw	r2,4(r3)
	image->flag = 1;
     944:	e0ffff17 	ldw	r3,-4(fp)
     948:	00800044 	movi	r2,1
     94c:	18800315 	stw	r2,12(r3)
	image->data = (int *)malloc(sizeof(int)*(height*width));
     950:	e0fffe17 	ldw	r3,-8(fp)
     954:	e0bffd17 	ldw	r2,-12(fp)
     958:	1885383a 	mul	r2,r3,r2
     95c:	1085883a 	add	r2,r2,r2
     960:	1085883a 	add	r2,r2,r2
     964:	1009883a 	mov	r4,r2
     968:	001318c0 	call	1318c <malloc>
     96c:	1007883a 	mov	r3,r2
     970:	e0bfff17 	ldw	r2,-4(fp)
     974:	10c00215 	stw	r3,8(r2)
}
     978:	e037883a 	mov	sp,fp
     97c:	dfc00117 	ldw	ra,4(sp)
     980:	df000017 	ldw	fp,0(sp)
     984:	dec00204 	addi	sp,sp,8
     988:	f800283a 	ret

0000098c <freeImage>:

int freeImage(MyImage* image)
{
     98c:	defffc04 	addi	sp,sp,-16
     990:	dfc00315 	stw	ra,12(sp)
     994:	df000215 	stw	fp,8(sp)
     998:	df000204 	addi	fp,sp,8
     99c:	e13ffe15 	stw	r4,-8(fp)
	if (image->flag == 0)
     9a0:	e0bffe17 	ldw	r2,-8(fp)
     9a4:	10800417 	ldw	r2,16(r2)
     9a8:	1004c03a 	cmpne	r2,r2,zero
     9ac:	1000061e 	bne	r2,zero,9c8 <freeImage+0x3c>
	{
		printf("no image to delete\n");
     9b0:	010000b4 	movhi	r4,2
     9b4:	21399804 	addi	r4,r4,-6560
     9b8:	0013fcc0 	call	13fcc <puts>
		return -1;
     9bc:	00bfffc4 	movi	r2,-1
     9c0:	e0bfff15 	stw	r2,-4(fp)
     9c4:	00000406 	br	9d8 <freeImage+0x4c>
	}
	else
	{
//		printf("image deleted\n");
		free(image->data); 
     9c8:	e0bffe17 	ldw	r2,-8(fp)
     9cc:	11000317 	ldw	r4,12(r2)
     9d0:	00131780 	call	13178 <free>
		return 0;
     9d4:	e03fff15 	stw	zero,-4(fp)
     9d8:	e0bfff17 	ldw	r2,-4(fp)
	}
}
     9dc:	e037883a 	mov	sp,fp
     9e0:	dfc00117 	ldw	ra,4(sp)
     9e4:	df000017 	ldw	fp,0(sp)
     9e8:	dec00204 	addi	sp,sp,8
     9ec:	f800283a 	ret

000009f0 <freeSumImage>:

int freeSumImage(MyIntImage* image)
{
     9f0:	defffc04 	addi	sp,sp,-16
     9f4:	dfc00315 	stw	ra,12(sp)
     9f8:	df000215 	stw	fp,8(sp)
     9fc:	df000204 	addi	fp,sp,8
     a00:	e13ffe15 	stw	r4,-8(fp)
	if (image->flag == 0)
     a04:	e0bffe17 	ldw	r2,-8(fp)
     a08:	10800317 	ldw	r2,12(r2)
     a0c:	1004c03a 	cmpne	r2,r2,zero
     a10:	1000061e 	bne	r2,zero,a2c <freeSumImage+0x3c>
	{
		printf("no image to delete\n");
     a14:	010000b4 	movhi	r4,2
     a18:	21399804 	addi	r4,r4,-6560
     a1c:	0013fcc0 	call	13fcc <puts>
		return -1;
     a20:	00bfffc4 	movi	r2,-1
     a24:	e0bfff15 	stw	r2,-4(fp)
     a28:	00000406 	br	a3c <freeSumImage+0x4c>
	}
	else
	{
//		printf("image deleted\n");
		free(image->data); 
     a2c:	e0bffe17 	ldw	r2,-8(fp)
     a30:	11000217 	ldw	r4,8(r2)
     a34:	00131780 	call	13178 <free>
		return 0;
     a38:	e03fff15 	stw	zero,-4(fp)
     a3c:	e0bfff17 	ldw	r2,-4(fp)
	}
}
     a40:	e037883a 	mov	sp,fp
     a44:	dfc00117 	ldw	ra,4(sp)
     a48:	df000017 	ldw	fp,0(sp)
     a4c:	dec00204 	addi	sp,sp,8
     a50:	f800283a 	ret

00000a54 <setImage>:

void setImage(int width, int height, MyImage *image)
{
     a54:	defffc04 	addi	sp,sp,-16
     a58:	df000315 	stw	fp,12(sp)
     a5c:	df000304 	addi	fp,sp,12
     a60:	e13ffd15 	stw	r4,-12(fp)
     a64:	e17ffe15 	stw	r5,-8(fp)
     a68:	e1bfff15 	stw	r6,-4(fp)
	image->width = width;
     a6c:	e0ffff17 	ldw	r3,-4(fp)
     a70:	e0bffd17 	ldw	r2,-12(fp)
     a74:	18800015 	stw	r2,0(r3)
	image->height = height;
     a78:	e0ffff17 	ldw	r3,-4(fp)
     a7c:	e0bffe17 	ldw	r2,-8(fp)
     a80:	18800115 	stw	r2,4(r3)
}
     a84:	e037883a 	mov	sp,fp
     a88:	df000017 	ldw	fp,0(sp)
     a8c:	dec00104 	addi	sp,sp,4
     a90:	f800283a 	ret

00000a94 <setSumImage>:

void setSumImage(int width, int height, MyIntImage *image)
{
     a94:	defffc04 	addi	sp,sp,-16
     a98:	df000315 	stw	fp,12(sp)
     a9c:	df000304 	addi	fp,sp,12
     aa0:	e13ffd15 	stw	r4,-12(fp)
     aa4:	e17ffe15 	stw	r5,-8(fp)
     aa8:	e1bfff15 	stw	r6,-4(fp)
	image->width = width;
     aac:	e0ffff17 	ldw	r3,-4(fp)
     ab0:	e0bffd17 	ldw	r2,-12(fp)
     ab4:	18800015 	stw	r2,0(r3)
	image->height = height;
     ab8:	e0ffff17 	ldw	r3,-4(fp)
     abc:	e0bffe17 	ldw	r2,-8(fp)
     ac0:	18800115 	stw	r2,4(r3)
}
     ac4:	e037883a 	mov	sp,fp
     ac8:	df000017 	ldw	fp,0(sp)
     acc:	dec00104 	addi	sp,sp,4
     ad0:	f800283a 	ret

00000ad4 <_Z8int_sqrtj>:
/*****************************************************
 * The int_sqrt is only used in runCascadeClassifier
 * If you want to replace int_sqrt with HW sqrtf in GPU,
 * simple look into the runCascadeClassifier function.
 *****************************************************/
unsigned int int_sqrt (unsigned int value)
     ad4:	defffa04 	addi	sp,sp,-24
     ad8:	df000515 	stw	fp,20(sp)
     adc:	df000504 	addi	fp,sp,20
     ae0:	e13fff15 	stw	r4,-4(fp)
{
  int i;
  unsigned int a = 0, b = 0, c = 0;
     ae4:	e03ffd15 	stw	zero,-12(fp)
     ae8:	e03ffc15 	stw	zero,-16(fp)
     aec:	e03ffb15 	stw	zero,-20(fp)
  for (i=0; i < (32 >> 1); i++)
     af0:	e03ffe15 	stw	zero,-8(fp)
     af4:	00002106 	br	b7c <_Z8int_sqrtj+0xa8>
    {
      c<<= 2;
     af8:	e0bffb17 	ldw	r2,-20(fp)
     afc:	1085883a 	add	r2,r2,r2
     b00:	1085883a 	add	r2,r2,r2
     b04:	e0bffb15 	stw	r2,-20(fp)
#define UPPERBITS(value) (value>>30)
      c += UPPERBITS(value);
     b08:	e0bfff17 	ldw	r2,-4(fp)
     b0c:	1006d7ba 	srli	r3,r2,30
     b10:	e0bffb17 	ldw	r2,-20(fp)
     b14:	10c5883a 	add	r2,r2,r3
     b18:	e0bffb15 	stw	r2,-20(fp)
#undef UPPERBITS
      value <<= 2;
     b1c:	e0bfff17 	ldw	r2,-4(fp)
     b20:	1085883a 	add	r2,r2,r2
     b24:	1085883a 	add	r2,r2,r2
     b28:	e0bfff15 	stw	r2,-4(fp)
      a <<= 1;
     b2c:	e0bffd17 	ldw	r2,-12(fp)
     b30:	1085883a 	add	r2,r2,r2
     b34:	e0bffd15 	stw	r2,-12(fp)
      b = (a<<1) | 1;
     b38:	e0bffd17 	ldw	r2,-12(fp)
     b3c:	1085883a 	add	r2,r2,r2
     b40:	10800054 	ori	r2,r2,1
     b44:	e0bffc15 	stw	r2,-16(fp)
      if (c >= b)
     b48:	e0fffb17 	ldw	r3,-20(fp)
     b4c:	e0bffc17 	ldw	r2,-16(fp)
     b50:	18800736 	bltu	r3,r2,b70 <_Z8int_sqrtj+0x9c>
	{
	  c -= b;
     b54:	e0fffb17 	ldw	r3,-20(fp)
     b58:	e0bffc17 	ldw	r2,-16(fp)
     b5c:	1885c83a 	sub	r2,r3,r2
     b60:	e0bffb15 	stw	r2,-20(fp)
	  a++;
     b64:	e0bffd17 	ldw	r2,-12(fp)
     b68:	10800044 	addi	r2,r2,1
     b6c:	e0bffd15 	stw	r2,-12(fp)
 *****************************************************/
unsigned int int_sqrt (unsigned int value)
{
  int i;
  unsigned int a = 0, b = 0, c = 0;
  for (i=0; i < (32 >> 1); i++)
     b70:	e0bffe17 	ldw	r2,-8(fp)
     b74:	10800044 	addi	r2,r2,1
     b78:	e0bffe15 	stw	r2,-8(fp)
     b7c:	e0bffe17 	ldw	r2,-8(fp)
     b80:	10800410 	cmplti	r2,r2,16
     b84:	103fdc1e 	bne	r2,zero,af8 <_Z8int_sqrtj+0x24>
	{
	  c -= b;
	  a++;
	}
    }
  return a;
     b88:	e0bffd17 	ldw	r2,-12(fp)
}
     b8c:	e037883a 	mov	sp,fp
     b90:	df000017 	ldw	fp,0(sp)
     b94:	dec00104 	addi	sp,sp,4
     b98:	f800283a 	ret

00000b9c <setImageForCascadeClassifier>:


void setImageForCascadeClassifier( myCascade* _cascade, MyIntImage* _sum, MyIntImage* _sqsum)
     b9c:	deffeb04 	addi	sp,sp,-84
     ba0:	df001415 	stw	fp,80(sp)
     ba4:	df001404 	addi	fp,sp,80
     ba8:	e13ffd15 	stw	r4,-12(fp)
     bac:	e17ffe15 	stw	r5,-8(fp)
     bb0:	e1bfff15 	stw	r6,-4(fp)
{
  MyIntImage *sum = _sum;
     bb4:	e0bffe17 	ldw	r2,-8(fp)
     bb8:	e0bff415 	stw	r2,-48(fp)
  MyIntImage *sqsum = _sqsum;
     bbc:	e0bfff17 	ldw	r2,-4(fp)
     bc0:	e0bff315 	stw	r2,-52(fp)
  myCascade* cascade = _cascade;
     bc4:	e0bffd17 	ldw	r2,-12(fp)
     bc8:	e0bff215 	stw	r2,-56(fp)
  int i, j, k;
  MyRect equRect;
  int r_index = 0;
     bcc:	e03fee15 	stw	zero,-72(fp)
  int w_index = 0;
     bd0:	e03fed15 	stw	zero,-76(fp)
  MyRect tr;

  cascade->sum = *sum;
     bd4:	e13ff217 	ldw	r4,-56(fp)
     bd8:	e0fff417 	ldw	r3,-48(fp)
     bdc:	18800017 	ldw	r2,0(r3)
     be0:	20800615 	stw	r2,24(r4)
     be4:	18800117 	ldw	r2,4(r3)
     be8:	20800715 	stw	r2,28(r4)
     bec:	18800217 	ldw	r2,8(r3)
     bf0:	20800815 	stw	r2,32(r4)
     bf4:	18800317 	ldw	r2,12(r3)
     bf8:	20800915 	stw	r2,36(r4)
  cascade->sqsum = *sqsum;
     bfc:	e13ff217 	ldw	r4,-56(fp)
     c00:	e0fff317 	ldw	r3,-52(fp)
     c04:	18800017 	ldw	r2,0(r3)
     c08:	20800a15 	stw	r2,40(r4)
     c0c:	18800117 	ldw	r2,4(r3)
     c10:	20800b15 	stw	r2,44(r4)
     c14:	18800217 	ldw	r2,8(r3)
     c18:	20800c15 	stw	r2,48(r4)
     c1c:	18800317 	ldw	r2,12(r3)
     c20:	20800d15 	stw	r2,52(r4)

  equRect.x = equRect.y = 0;
     c24:	e03ff615 	stw	zero,-40(fp)
     c28:	e0bff617 	ldw	r2,-40(fp)
     c2c:	e0bff515 	stw	r2,-44(fp)
  equRect.width = cascade->orig_window_size.width;
     c30:	e0bff217 	ldw	r2,-56(fp)
     c34:	10800317 	ldw	r2,12(r2)
     c38:	e0bff715 	stw	r2,-36(fp)
  equRect.height = cascade->orig_window_size.height;
     c3c:	e0bff217 	ldw	r2,-56(fp)
     c40:	10800417 	ldw	r2,16(r2)
     c44:	e0bff815 	stw	r2,-32(fp)

  cascade->inv_window_area = equRect.width*equRect.height;
     c48:	e0fff717 	ldw	r3,-36(fp)
     c4c:	e0bff817 	ldw	r2,-32(fp)
     c50:	1887383a 	mul	r3,r3,r2
     c54:	e0bff217 	ldw	r2,-56(fp)
     c58:	10c00515 	stw	r3,20(r2)

  cascade->p0 = (sum->data) ;
     c5c:	e0bff417 	ldw	r2,-48(fp)
     c60:	10c00217 	ldw	r3,8(r2)
     c64:	e0bff217 	ldw	r2,-56(fp)
     c68:	10c01215 	stw	r3,72(r2)
  cascade->p1 = (sum->data +  equRect.width - 1) ;
     c6c:	e0bff417 	ldw	r2,-48(fp)
     c70:	10c00217 	ldw	r3,8(r2)
     c74:	e0bff717 	ldw	r2,-36(fp)
     c78:	1085883a 	add	r2,r2,r2
     c7c:	1085883a 	add	r2,r2,r2
     c80:	1885883a 	add	r2,r3,r2
     c84:	10ffff04 	addi	r3,r2,-4
     c88:	e0bff217 	ldw	r2,-56(fp)
     c8c:	10c01315 	stw	r3,76(r2)
  cascade->p2 = (sum->data + sum->width*(equRect.height - 1));
     c90:	e0bff417 	ldw	r2,-48(fp)
     c94:	11000217 	ldw	r4,8(r2)
     c98:	e0bff417 	ldw	r2,-48(fp)
     c9c:	10c00017 	ldw	r3,0(r2)
     ca0:	e0bff817 	ldw	r2,-32(fp)
     ca4:	1085883a 	add	r2,r2,r2
     ca8:	1085883a 	add	r2,r2,r2
     cac:	10bfff04 	addi	r2,r2,-4
     cb0:	1885383a 	mul	r2,r3,r2
     cb4:	2087883a 	add	r3,r4,r2
     cb8:	e0bff217 	ldw	r2,-56(fp)
     cbc:	10c01415 	stw	r3,80(r2)
  cascade->p3 = (sum->data + sum->width*(equRect.height - 1) + equRect.width - 1);
     cc0:	e0bff417 	ldw	r2,-48(fp)
     cc4:	11400217 	ldw	r5,8(r2)
     cc8:	e0bff717 	ldw	r2,-36(fp)
     ccc:	1085883a 	add	r2,r2,r2
     cd0:	1085883a 	add	r2,r2,r2
     cd4:	1007883a 	mov	r3,r2
     cd8:	e0bff417 	ldw	r2,-48(fp)
     cdc:	11000017 	ldw	r4,0(r2)
     ce0:	e0bff817 	ldw	r2,-32(fp)
     ce4:	1085883a 	add	r2,r2,r2
     ce8:	1085883a 	add	r2,r2,r2
     cec:	10bfff04 	addi	r2,r2,-4
     cf0:	2085383a 	mul	r2,r4,r2
     cf4:	1885883a 	add	r2,r3,r2
     cf8:	2885883a 	add	r2,r5,r2
     cfc:	10ffff04 	addi	r3,r2,-4
     d00:	e0bff217 	ldw	r2,-56(fp)
     d04:	10c01515 	stw	r3,84(r2)
  cascade->pq0 = (sqsum->data);
     d08:	e0bff317 	ldw	r2,-52(fp)
     d0c:	10c00217 	ldw	r3,8(r2)
     d10:	e0bff217 	ldw	r2,-56(fp)
     d14:	10c00e15 	stw	r3,56(r2)
  cascade->pq1 = (sqsum->data +  equRect.width - 1) ;
     d18:	e0bff317 	ldw	r2,-52(fp)
     d1c:	10c00217 	ldw	r3,8(r2)
     d20:	e0bff717 	ldw	r2,-36(fp)
     d24:	1085883a 	add	r2,r2,r2
     d28:	1085883a 	add	r2,r2,r2
     d2c:	1885883a 	add	r2,r3,r2
     d30:	10ffff04 	addi	r3,r2,-4
     d34:	e0bff217 	ldw	r2,-56(fp)
     d38:	10c00f15 	stw	r3,60(r2)
  cascade->pq2 = (sqsum->data + sqsum->width*(equRect.height - 1));
     d3c:	e0bff317 	ldw	r2,-52(fp)
     d40:	11000217 	ldw	r4,8(r2)
     d44:	e0bff317 	ldw	r2,-52(fp)
     d48:	10c00017 	ldw	r3,0(r2)
     d4c:	e0bff817 	ldw	r2,-32(fp)
     d50:	1085883a 	add	r2,r2,r2
     d54:	1085883a 	add	r2,r2,r2
     d58:	10bfff04 	addi	r2,r2,-4
     d5c:	1885383a 	mul	r2,r3,r2
     d60:	2087883a 	add	r3,r4,r2
     d64:	e0bff217 	ldw	r2,-56(fp)
     d68:	10c01015 	stw	r3,64(r2)
  cascade->pq3 = (sqsum->data + sqsum->width*(equRect.height - 1) + equRect.width - 1);
     d6c:	e0bff317 	ldw	r2,-52(fp)
     d70:	11400217 	ldw	r5,8(r2)
     d74:	e0bff717 	ldw	r2,-36(fp)
     d78:	1085883a 	add	r2,r2,r2
     d7c:	1085883a 	add	r2,r2,r2
     d80:	1007883a 	mov	r3,r2
     d84:	e0bff317 	ldw	r2,-52(fp)
     d88:	11000017 	ldw	r4,0(r2)
     d8c:	e0bff817 	ldw	r2,-32(fp)
     d90:	1085883a 	add	r2,r2,r2
     d94:	1085883a 	add	r2,r2,r2
     d98:	10bfff04 	addi	r2,r2,-4
     d9c:	2085383a 	mul	r2,r4,r2
     da0:	1885883a 	add	r2,r3,r2
     da4:	2885883a 	add	r2,r5,r2
     da8:	10ffff04 	addi	r3,r2,-4
     dac:	e0bff217 	ldw	r2,-56(fp)
     db0:	10c01115 	stw	r3,68(r2)
   * Load the index of the four corners 
   * of the filter rectangle
   **************************************/

  /* loop over the number of stages */
  for( i = 0; i < cascade->n_stages; i++ )
     db4:	e03ff115 	stw	zero,-60(fp)
     db8:	00017206 	br	1384 <setImageForCascadeClassifier+0x7e8>
    {
      /* loop over the number of haar features */
      for( j = 0; j < stages_array[i]; j++ )
     dbc:	e03ff015 	stw	zero,-64(fp)
     dc0:	00016406 	br	1354 <setImageForCascadeClassifier+0x7b8>
	{
	  int nr = 3;
     dc4:	008000c4 	movi	r2,3
     dc8:	e0bfec15 	stw	r2,-80(fp)
	  /* loop over the number of rectangles */
	  for( k = 0; k < nr; k++ )
     dcc:	e03fef15 	stw	zero,-68(fp)
     dd0:	00015406 	br	1324 <setImageForCascadeClassifier+0x788>
	    {
	      tr.x = rectangles_array[r_index + k*4];
     dd4:	e0bfef17 	ldw	r2,-68(fp)
     dd8:	1085883a 	add	r2,r2,r2
     ddc:	1085883a 	add	r2,r2,r2
     de0:	1007883a 	mov	r3,r2
     de4:	e0bfee17 	ldw	r2,-72(fp)
     de8:	1885883a 	add	r2,r3,r2
     dec:	1085883a 	add	r2,r2,r2
     df0:	1085883a 	add	r2,r2,r2
     df4:	1007883a 	mov	r3,r2
     df8:	d0a70417 	ldw	r2,-25584(gp)
     dfc:	1885883a 	add	r2,r3,r2
     e00:	10800017 	ldw	r2,0(r2)
     e04:	e0bff915 	stw	r2,-28(fp)
	      tr.width = rectangles_array[r_index + 2 + k*4];
     e08:	e0bfef17 	ldw	r2,-68(fp)
     e0c:	1085883a 	add	r2,r2,r2
     e10:	1085883a 	add	r2,r2,r2
     e14:	1007883a 	mov	r3,r2
     e18:	e0bfee17 	ldw	r2,-72(fp)
     e1c:	1885883a 	add	r2,r3,r2
     e20:	1085883a 	add	r2,r2,r2
     e24:	1085883a 	add	r2,r2,r2
     e28:	1007883a 	mov	r3,r2
     e2c:	d0a70417 	ldw	r2,-25584(gp)
     e30:	1885883a 	add	r2,r3,r2
     e34:	10800204 	addi	r2,r2,8
     e38:	10800017 	ldw	r2,0(r2)
     e3c:	e0bffb15 	stw	r2,-20(fp)
	      tr.y = rectangles_array[r_index + 1 + k*4];
     e40:	e0bfef17 	ldw	r2,-68(fp)
     e44:	1085883a 	add	r2,r2,r2
     e48:	1085883a 	add	r2,r2,r2
     e4c:	1007883a 	mov	r3,r2
     e50:	e0bfee17 	ldw	r2,-72(fp)
     e54:	1885883a 	add	r2,r3,r2
     e58:	1085883a 	add	r2,r2,r2
     e5c:	1085883a 	add	r2,r2,r2
     e60:	1007883a 	mov	r3,r2
     e64:	d0a70417 	ldw	r2,-25584(gp)
     e68:	1885883a 	add	r2,r3,r2
     e6c:	10800104 	addi	r2,r2,4
     e70:	10800017 	ldw	r2,0(r2)
     e74:	e0bffa15 	stw	r2,-24(fp)
	      tr.height = rectangles_array[r_index + 3 + k*4];
     e78:	e0bfef17 	ldw	r2,-68(fp)
     e7c:	1085883a 	add	r2,r2,r2
     e80:	1085883a 	add	r2,r2,r2
     e84:	1007883a 	mov	r3,r2
     e88:	e0bfee17 	ldw	r2,-72(fp)
     e8c:	1885883a 	add	r2,r3,r2
     e90:	1085883a 	add	r2,r2,r2
     e94:	1085883a 	add	r2,r2,r2
     e98:	1007883a 	mov	r3,r2
     e9c:	d0a70417 	ldw	r2,-25584(gp)
     ea0:	1885883a 	add	r2,r3,r2
     ea4:	10800304 	addi	r2,r2,12
     ea8:	10800017 	ldw	r2,0(r2)
     eac:	e0bffc15 	stw	r2,-16(fp)
	      if (k < 2)
     eb0:	e0bfef17 	ldw	r2,-68(fp)
     eb4:	10800088 	cmpgei	r2,r2,2
     eb8:	10006c1e 	bne	r2,zero,106c <setImageForCascadeClassifier+0x4d0>
		{
		  scaled_rectangles_array[r_index + k*4] = (sum->data + sum->width*(tr.y ) + (tr.x )) ;
     ebc:	e0bfef17 	ldw	r2,-68(fp)
     ec0:	1085883a 	add	r2,r2,r2
     ec4:	1085883a 	add	r2,r2,r2
     ec8:	1007883a 	mov	r3,r2
     ecc:	e0bfee17 	ldw	r2,-72(fp)
     ed0:	1885883a 	add	r2,r3,r2
     ed4:	1085883a 	add	r2,r2,r2
     ed8:	1085883a 	add	r2,r2,r2
     edc:	1007883a 	mov	r3,r2
     ee0:	d0a70517 	ldw	r2,-25580(gp)
     ee4:	188b883a 	add	r5,r3,r2
     ee8:	e0bff417 	ldw	r2,-48(fp)
     eec:	11800217 	ldw	r6,8(r2)
     ef0:	e0bff917 	ldw	r2,-28(fp)
     ef4:	1009883a 	mov	r4,r2
     ef8:	e0bff417 	ldw	r2,-48(fp)
     efc:	10c00017 	ldw	r3,0(r2)
     f00:	e0bffa17 	ldw	r2,-24(fp)
     f04:	1885383a 	mul	r2,r3,r2
     f08:	2085883a 	add	r2,r4,r2
     f0c:	1085883a 	add	r2,r2,r2
     f10:	1085883a 	add	r2,r2,r2
     f14:	3085883a 	add	r2,r6,r2
     f18:	28800015 	stw	r2,0(r5)
		  scaled_rectangles_array[r_index + k*4 + 1] = (sum->data + sum->width*(tr.y ) + (tr.x  + tr.width)) ;
     f1c:	e0bfef17 	ldw	r2,-68(fp)
     f20:	1085883a 	add	r2,r2,r2
     f24:	1085883a 	add	r2,r2,r2
     f28:	1007883a 	mov	r3,r2
     f2c:	e0bfee17 	ldw	r2,-72(fp)
     f30:	1885883a 	add	r2,r3,r2
     f34:	1085883a 	add	r2,r2,r2
     f38:	1085883a 	add	r2,r2,r2
     f3c:	1007883a 	mov	r3,r2
     f40:	d0a70517 	ldw	r2,-25580(gp)
     f44:	1885883a 	add	r2,r3,r2
     f48:	11400104 	addi	r5,r2,4
     f4c:	e0bff417 	ldw	r2,-48(fp)
     f50:	11800217 	ldw	r6,8(r2)
     f54:	e0fff917 	ldw	r3,-28(fp)
     f58:	e0bffb17 	ldw	r2,-20(fp)
     f5c:	1885883a 	add	r2,r3,r2
     f60:	1009883a 	mov	r4,r2
     f64:	e0bff417 	ldw	r2,-48(fp)
     f68:	10c00017 	ldw	r3,0(r2)
     f6c:	e0bffa17 	ldw	r2,-24(fp)
     f70:	1885383a 	mul	r2,r3,r2
     f74:	2085883a 	add	r2,r4,r2
     f78:	1085883a 	add	r2,r2,r2
     f7c:	1085883a 	add	r2,r2,r2
     f80:	3085883a 	add	r2,r6,r2
     f84:	28800015 	stw	r2,0(r5)
		  scaled_rectangles_array[r_index + k*4 + 2] = (sum->data + sum->width*(tr.y  + tr.height) + (tr.x ));
     f88:	e0bfef17 	ldw	r2,-68(fp)
     f8c:	1085883a 	add	r2,r2,r2
     f90:	1085883a 	add	r2,r2,r2
     f94:	1007883a 	mov	r3,r2
     f98:	e0bfee17 	ldw	r2,-72(fp)
     f9c:	1885883a 	add	r2,r3,r2
     fa0:	1085883a 	add	r2,r2,r2
     fa4:	1085883a 	add	r2,r2,r2
     fa8:	1007883a 	mov	r3,r2
     fac:	d0a70517 	ldw	r2,-25580(gp)
     fb0:	1885883a 	add	r2,r3,r2
     fb4:	11800204 	addi	r6,r2,8
     fb8:	e0bff417 	ldw	r2,-48(fp)
     fbc:	11c00217 	ldw	r7,8(r2)
     fc0:	e0bff917 	ldw	r2,-28(fp)
     fc4:	100b883a 	mov	r5,r2
     fc8:	e0bff417 	ldw	r2,-48(fp)
     fcc:	11000017 	ldw	r4,0(r2)
     fd0:	e0fffa17 	ldw	r3,-24(fp)
     fd4:	e0bffc17 	ldw	r2,-16(fp)
     fd8:	1885883a 	add	r2,r3,r2
     fdc:	2085383a 	mul	r2,r4,r2
     fe0:	2885883a 	add	r2,r5,r2
     fe4:	1085883a 	add	r2,r2,r2
     fe8:	1085883a 	add	r2,r2,r2
     fec:	3885883a 	add	r2,r7,r2
     ff0:	30800015 	stw	r2,0(r6)
		  scaled_rectangles_array[r_index + k*4 + 3] = (sum->data + sum->width*(tr.y  + tr.height) + (tr.x  + tr.width));
     ff4:	e0bfef17 	ldw	r2,-68(fp)
     ff8:	1085883a 	add	r2,r2,r2
     ffc:	1085883a 	add	r2,r2,r2
    1000:	1007883a 	mov	r3,r2
    1004:	e0bfee17 	ldw	r2,-72(fp)
    1008:	1885883a 	add	r2,r3,r2
    100c:	1085883a 	add	r2,r2,r2
    1010:	1085883a 	add	r2,r2,r2
    1014:	1007883a 	mov	r3,r2
    1018:	d0a70517 	ldw	r2,-25580(gp)
    101c:	1885883a 	add	r2,r3,r2
    1020:	11800304 	addi	r6,r2,12
    1024:	e0bff417 	ldw	r2,-48(fp)
    1028:	11c00217 	ldw	r7,8(r2)
    102c:	e0fff917 	ldw	r3,-28(fp)
    1030:	e0bffb17 	ldw	r2,-20(fp)
    1034:	1885883a 	add	r2,r3,r2
    1038:	100b883a 	mov	r5,r2
    103c:	e0bff417 	ldw	r2,-48(fp)
    1040:	11000017 	ldw	r4,0(r2)
    1044:	e0fffa17 	ldw	r3,-24(fp)
    1048:	e0bffc17 	ldw	r2,-16(fp)
    104c:	1885883a 	add	r2,r3,r2
    1050:	2085383a 	mul	r2,r4,r2
    1054:	2885883a 	add	r2,r5,r2
    1058:	1085883a 	add	r2,r2,r2
    105c:	1085883a 	add	r2,r2,r2
    1060:	3885883a 	add	r2,r7,r2
    1064:	30800015 	stw	r2,0(r6)
    1068:	0000ab06 	br	1318 <setImageForCascadeClassifier+0x77c>
		}
	      else
		{
		  if ((tr.x == 0)&& (tr.y == 0) &&(tr.width == 0) &&(tr.height == 0))
    106c:	e0bff917 	ldw	r2,-28(fp)
    1070:	1004c03a 	cmpne	r2,r2,zero
    1074:	10003d1e 	bne	r2,zero,116c <setImageForCascadeClassifier+0x5d0>
    1078:	e0bffa17 	ldw	r2,-24(fp)
    107c:	1004c03a 	cmpne	r2,r2,zero
    1080:	10003a1e 	bne	r2,zero,116c <setImageForCascadeClassifier+0x5d0>
    1084:	e0bffb17 	ldw	r2,-20(fp)
    1088:	1004c03a 	cmpne	r2,r2,zero
    108c:	1000371e 	bne	r2,zero,116c <setImageForCascadeClassifier+0x5d0>
    1090:	e0bffc17 	ldw	r2,-16(fp)
    1094:	1004c03a 	cmpne	r2,r2,zero
    1098:	1000341e 	bne	r2,zero,116c <setImageForCascadeClassifier+0x5d0>
		    {
		      scaled_rectangles_array[r_index + k*4] = NULL ;
    109c:	e0bfef17 	ldw	r2,-68(fp)
    10a0:	1085883a 	add	r2,r2,r2
    10a4:	1085883a 	add	r2,r2,r2
    10a8:	1007883a 	mov	r3,r2
    10ac:	e0bfee17 	ldw	r2,-72(fp)
    10b0:	1885883a 	add	r2,r3,r2
    10b4:	1085883a 	add	r2,r2,r2
    10b8:	1085883a 	add	r2,r2,r2
    10bc:	1007883a 	mov	r3,r2
    10c0:	d0a70517 	ldw	r2,-25580(gp)
    10c4:	1885883a 	add	r2,r3,r2
    10c8:	10000015 	stw	zero,0(r2)
		      scaled_rectangles_array[r_index + k*4 + 1] = NULL ;
    10cc:	e0bfef17 	ldw	r2,-68(fp)
    10d0:	1085883a 	add	r2,r2,r2
    10d4:	1085883a 	add	r2,r2,r2
    10d8:	1007883a 	mov	r3,r2
    10dc:	e0bfee17 	ldw	r2,-72(fp)
    10e0:	1885883a 	add	r2,r3,r2
    10e4:	1085883a 	add	r2,r2,r2
    10e8:	1085883a 	add	r2,r2,r2
    10ec:	1007883a 	mov	r3,r2
    10f0:	d0a70517 	ldw	r2,-25580(gp)
    10f4:	1885883a 	add	r2,r3,r2
    10f8:	10800104 	addi	r2,r2,4
    10fc:	10000015 	stw	zero,0(r2)
		      scaled_rectangles_array[r_index + k*4 + 2] = NULL;
    1100:	e0bfef17 	ldw	r2,-68(fp)
    1104:	1085883a 	add	r2,r2,r2
    1108:	1085883a 	add	r2,r2,r2
    110c:	1007883a 	mov	r3,r2
    1110:	e0bfee17 	ldw	r2,-72(fp)
    1114:	1885883a 	add	r2,r3,r2
    1118:	1085883a 	add	r2,r2,r2
    111c:	1085883a 	add	r2,r2,r2
    1120:	1007883a 	mov	r3,r2
    1124:	d0a70517 	ldw	r2,-25580(gp)
    1128:	1885883a 	add	r2,r3,r2
    112c:	10800204 	addi	r2,r2,8
    1130:	10000015 	stw	zero,0(r2)
		      scaled_rectangles_array[r_index + k*4 + 3] = NULL;
    1134:	e0bfef17 	ldw	r2,-68(fp)
    1138:	1085883a 	add	r2,r2,r2
    113c:	1085883a 	add	r2,r2,r2
    1140:	1007883a 	mov	r3,r2
    1144:	e0bfee17 	ldw	r2,-72(fp)
    1148:	1885883a 	add	r2,r3,r2
    114c:	1085883a 	add	r2,r2,r2
    1150:	1085883a 	add	r2,r2,r2
    1154:	1007883a 	mov	r3,r2
    1158:	d0a70517 	ldw	r2,-25580(gp)
    115c:	1885883a 	add	r2,r3,r2
    1160:	10800304 	addi	r2,r2,12
    1164:	10000015 	stw	zero,0(r2)
		  scaled_rectangles_array[r_index + k*4 + 2] = (sum->data + sum->width*(tr.y  + tr.height) + (tr.x ));
		  scaled_rectangles_array[r_index + k*4 + 3] = (sum->data + sum->width*(tr.y  + tr.height) + (tr.x  + tr.width));
		}
	      else
		{
		  if ((tr.x == 0)&& (tr.y == 0) &&(tr.width == 0) &&(tr.height == 0))
    1168:	00006b06 	br	1318 <setImageForCascadeClassifier+0x77c>
		      scaled_rectangles_array[r_index + k*4 + 2] = NULL;
		      scaled_rectangles_array[r_index + k*4 + 3] = NULL;
		    }
		  else
		    {
		      scaled_rectangles_array[r_index + k*4] = (sum->data + sum->width*(tr.y ) + (tr.x )) ;
    116c:	e0bfef17 	ldw	r2,-68(fp)
    1170:	1085883a 	add	r2,r2,r2
    1174:	1085883a 	add	r2,r2,r2
    1178:	1007883a 	mov	r3,r2
    117c:	e0bfee17 	ldw	r2,-72(fp)
    1180:	1885883a 	add	r2,r3,r2
    1184:	1085883a 	add	r2,r2,r2
    1188:	1085883a 	add	r2,r2,r2
    118c:	1007883a 	mov	r3,r2
    1190:	d0a70517 	ldw	r2,-25580(gp)
    1194:	188b883a 	add	r5,r3,r2
    1198:	e0bff417 	ldw	r2,-48(fp)
    119c:	11800217 	ldw	r6,8(r2)
    11a0:	e0bff917 	ldw	r2,-28(fp)
    11a4:	1009883a 	mov	r4,r2
    11a8:	e0bff417 	ldw	r2,-48(fp)
    11ac:	10c00017 	ldw	r3,0(r2)
    11b0:	e0bffa17 	ldw	r2,-24(fp)
    11b4:	1885383a 	mul	r2,r3,r2
    11b8:	2085883a 	add	r2,r4,r2
    11bc:	1085883a 	add	r2,r2,r2
    11c0:	1085883a 	add	r2,r2,r2
    11c4:	3085883a 	add	r2,r6,r2
    11c8:	28800015 	stw	r2,0(r5)
		      scaled_rectangles_array[r_index + k*4 + 1] = (sum->data + sum->width*(tr.y ) + (tr.x  + tr.width)) ;
    11cc:	e0bfef17 	ldw	r2,-68(fp)
    11d0:	1085883a 	add	r2,r2,r2
    11d4:	1085883a 	add	r2,r2,r2
    11d8:	1007883a 	mov	r3,r2
    11dc:	e0bfee17 	ldw	r2,-72(fp)
    11e0:	1885883a 	add	r2,r3,r2
    11e4:	1085883a 	add	r2,r2,r2
    11e8:	1085883a 	add	r2,r2,r2
    11ec:	1007883a 	mov	r3,r2
    11f0:	d0a70517 	ldw	r2,-25580(gp)
    11f4:	1885883a 	add	r2,r3,r2
    11f8:	11400104 	addi	r5,r2,4
    11fc:	e0bff417 	ldw	r2,-48(fp)
    1200:	11800217 	ldw	r6,8(r2)
    1204:	e0fff917 	ldw	r3,-28(fp)
    1208:	e0bffb17 	ldw	r2,-20(fp)
    120c:	1885883a 	add	r2,r3,r2
    1210:	1009883a 	mov	r4,r2
    1214:	e0bff417 	ldw	r2,-48(fp)
    1218:	10c00017 	ldw	r3,0(r2)
    121c:	e0bffa17 	ldw	r2,-24(fp)
    1220:	1885383a 	mul	r2,r3,r2
    1224:	2085883a 	add	r2,r4,r2
    1228:	1085883a 	add	r2,r2,r2
    122c:	1085883a 	add	r2,r2,r2
    1230:	3085883a 	add	r2,r6,r2
    1234:	28800015 	stw	r2,0(r5)
		      scaled_rectangles_array[r_index + k*4 + 2] = (sum->data + sum->width*(tr.y  + tr.height) + (tr.x ));
    1238:	e0bfef17 	ldw	r2,-68(fp)
    123c:	1085883a 	add	r2,r2,r2
    1240:	1085883a 	add	r2,r2,r2
    1244:	1007883a 	mov	r3,r2
    1248:	e0bfee17 	ldw	r2,-72(fp)
    124c:	1885883a 	add	r2,r3,r2
    1250:	1085883a 	add	r2,r2,r2
    1254:	1085883a 	add	r2,r2,r2
    1258:	1007883a 	mov	r3,r2
    125c:	d0a70517 	ldw	r2,-25580(gp)
    1260:	1885883a 	add	r2,r3,r2
    1264:	11800204 	addi	r6,r2,8
    1268:	e0bff417 	ldw	r2,-48(fp)
    126c:	11c00217 	ldw	r7,8(r2)
    1270:	e0bff917 	ldw	r2,-28(fp)
    1274:	100b883a 	mov	r5,r2
    1278:	e0bff417 	ldw	r2,-48(fp)
    127c:	11000017 	ldw	r4,0(r2)
    1280:	e0fffa17 	ldw	r3,-24(fp)
    1284:	e0bffc17 	ldw	r2,-16(fp)
    1288:	1885883a 	add	r2,r3,r2
    128c:	2085383a 	mul	r2,r4,r2
    1290:	2885883a 	add	r2,r5,r2
    1294:	1085883a 	add	r2,r2,r2
    1298:	1085883a 	add	r2,r2,r2
    129c:	3885883a 	add	r2,r7,r2
    12a0:	30800015 	stw	r2,0(r6)
		      scaled_rectangles_array[r_index + k*4 + 3] = (sum->data + sum->width*(tr.y  + tr.height) + (tr.x  + tr.width));
    12a4:	e0bfef17 	ldw	r2,-68(fp)
    12a8:	1085883a 	add	r2,r2,r2
    12ac:	1085883a 	add	r2,r2,r2
    12b0:	1007883a 	mov	r3,r2
    12b4:	e0bfee17 	ldw	r2,-72(fp)
    12b8:	1885883a 	add	r2,r3,r2
    12bc:	1085883a 	add	r2,r2,r2
    12c0:	1085883a 	add	r2,r2,r2
    12c4:	1007883a 	mov	r3,r2
    12c8:	d0a70517 	ldw	r2,-25580(gp)
    12cc:	1885883a 	add	r2,r3,r2
    12d0:	11800304 	addi	r6,r2,12
    12d4:	e0bff417 	ldw	r2,-48(fp)
    12d8:	11c00217 	ldw	r7,8(r2)
    12dc:	e0fff917 	ldw	r3,-28(fp)
    12e0:	e0bffb17 	ldw	r2,-20(fp)
    12e4:	1885883a 	add	r2,r3,r2
    12e8:	100b883a 	mov	r5,r2
    12ec:	e0bff417 	ldw	r2,-48(fp)
    12f0:	11000017 	ldw	r4,0(r2)
    12f4:	e0fffa17 	ldw	r3,-24(fp)
    12f8:	e0bffc17 	ldw	r2,-16(fp)
    12fc:	1885883a 	add	r2,r3,r2
    1300:	2085383a 	mul	r2,r4,r2
    1304:	2885883a 	add	r2,r5,r2
    1308:	1085883a 	add	r2,r2,r2
    130c:	1085883a 	add	r2,r2,r2
    1310:	3885883a 	add	r2,r7,r2
    1314:	30800015 	stw	r2,0(r6)
      /* loop over the number of haar features */
      for( j = 0; j < stages_array[i]; j++ )
	{
	  int nr = 3;
	  /* loop over the number of rectangles */
	  for( k = 0; k < nr; k++ )
    1318:	e0bfef17 	ldw	r2,-68(fp)
    131c:	10800044 	addi	r2,r2,1
    1320:	e0bfef15 	stw	r2,-68(fp)
    1324:	e0ffef17 	ldw	r3,-68(fp)
    1328:	e0bfec17 	ldw	r2,-80(fp)
    132c:	18bea916 	blt	r3,r2,dd4 <setImageForCascadeClassifier+0x238>
		      scaled_rectangles_array[r_index + k*4 + 2] = (sum->data + sum->width*(tr.y  + tr.height) + (tr.x ));
		      scaled_rectangles_array[r_index + k*4 + 3] = (sum->data + sum->width*(tr.y  + tr.height) + (tr.x  + tr.width));
		    }
		} /* end of branch if(k<2) */
	    } /* end of k loop*/
	  r_index+=12;
    1330:	e0bfee17 	ldw	r2,-72(fp)
    1334:	10800304 	addi	r2,r2,12
    1338:	e0bfee15 	stw	r2,-72(fp)
	  w_index+=3;
    133c:	e0bfed17 	ldw	r2,-76(fp)
    1340:	108000c4 	addi	r2,r2,3
    1344:	e0bfed15 	stw	r2,-76(fp)

  /* loop over the number of stages */
  for( i = 0; i < cascade->n_stages; i++ )
    {
      /* loop over the number of haar features */
      for( j = 0; j < stages_array[i]; j++ )
    1348:	e0bff017 	ldw	r2,-64(fp)
    134c:	10800044 	addi	r2,r2,1
    1350:	e0bff015 	stw	r2,-64(fp)
    1354:	e0bff117 	ldw	r2,-60(fp)
    1358:	1085883a 	add	r2,r2,r2
    135c:	1085883a 	add	r2,r2,r2
    1360:	1007883a 	mov	r3,r2
    1364:	d0a70317 	ldw	r2,-25588(gp)
    1368:	1885883a 	add	r2,r3,r2
    136c:	10c00017 	ldw	r3,0(r2)
    1370:	e0bff017 	ldw	r2,-64(fp)
    1374:	10fe9316 	blt	r2,r3,dc4 <setImageForCascadeClassifier+0x228>
   * Load the index of the four corners 
   * of the filter rectangle
   **************************************/

  /* loop over the number of stages */
  for( i = 0; i < cascade->n_stages; i++ )
    1378:	e0bff117 	ldw	r2,-60(fp)
    137c:	10800044 	addi	r2,r2,1
    1380:	e0bff115 	stw	r2,-60(fp)
    1384:	e0bff217 	ldw	r2,-56(fp)
    1388:	10c00017 	ldw	r3,0(r2)
    138c:	e0bff117 	ldw	r2,-60(fp)
    1390:	10fe8a16 	blt	r2,r3,dbc <setImageForCascadeClassifier+0x220>
	    } /* end of k loop*/
	  r_index+=12;
	  w_index+=3;
	} /* end of j loop */
    } /* end i loop */
}
    1394:	e037883a 	mov	sp,fp
    1398:	df000017 	ldw	fp,0(sp)
    139c:	dec00104 	addi	sp,sp,4
    13a0:	f800283a 	ret

000013a4 <runCascadeClassifier>:

}



int runCascadeClassifier( myCascade* _cascade, MyPoint pt, int start_stage )
    13a4:	deffeb04 	addi	sp,sp,-84
    13a8:	dfc01415 	stw	ra,80(sp)
    13ac:	df001315 	stw	fp,76(sp)
    13b0:	dc401215 	stw	r17,72(sp)
    13b4:	dc001115 	stw	r16,68(sp)
    13b8:	df001104 	addi	fp,sp,68
    13bc:	e13ffb15 	stw	r4,-20(fp)
    13c0:	e17ffc15 	stw	r5,-16(fp)
    13c4:	e1bffd15 	stw	r6,-12(fp)
    13c8:	e1fffe15 	stw	r7,-8(fp)

  int p_offset, pq_offset;
  int i, j;
  unsigned int mean;
  unsigned int variance_norm_factor;
  int haar_counter = 0;
    13cc:	e03ff415 	stw	zero,-48(fp)
  int w_index = 0;
    13d0:	e03ff315 	stw	zero,-52(fp)
  int r_index = 0;
    13d4:	e03ff215 	stw	zero,-56(fp)
  int stage_sum;
  myCascade* cascade;
  cascade = _cascade;
    13d8:	e0bffb17 	ldw	r2,-20(fp)
    13dc:	e0bff015 	stw	r2,-64(fp)
	
  p_offset = pt.y * (cascade->sum.width) + pt.x;
    13e0:	e0fffd17 	ldw	r3,-12(fp)
    13e4:	e0bff017 	ldw	r2,-64(fp)
    13e8:	10800617 	ldw	r2,24(r2)
    13ec:	1887383a 	mul	r3,r3,r2
    13f0:	e0bffc17 	ldw	r2,-16(fp)
    13f4:	1885883a 	add	r2,r3,r2
    13f8:	e0bffa15 	stw	r2,-24(fp)
  pq_offset = pt.y * (cascade->sqsum.width) + pt.x;
    13fc:	e0fffd17 	ldw	r3,-12(fp)
    1400:	e0bff017 	ldw	r2,-64(fp)
    1404:	10800a17 	ldw	r2,40(r2)
    1408:	1887383a 	mul	r3,r3,r2
    140c:	e0bffc17 	ldw	r2,-16(fp)
    1410:	1885883a 	add	r2,r3,r2
    1414:	e0bff915 	stw	r2,-28(fp)
   * mean is the mean of the pixels in the detection window
   * cascade->pqi[pq_offset] are the squared pixel values (using the squared integral image)
   * inv_window_area is 1 over the total number of pixels in the detection window
   *************************************************************************/

  variance_norm_factor =  (cascade->pq0[pq_offset] - cascade->pq1[pq_offset] - cascade->pq2[pq_offset] + cascade->pq3[pq_offset]);
    1418:	e0bff017 	ldw	r2,-64(fp)
    141c:	10c00e17 	ldw	r3,56(r2)
    1420:	e0bff917 	ldw	r2,-28(fp)
    1424:	1085883a 	add	r2,r2,r2
    1428:	1085883a 	add	r2,r2,r2
    142c:	1885883a 	add	r2,r3,r2
    1430:	10c00017 	ldw	r3,0(r2)
    1434:	e0bff017 	ldw	r2,-64(fp)
    1438:	11000f17 	ldw	r4,60(r2)
    143c:	e0bff917 	ldw	r2,-28(fp)
    1440:	1085883a 	add	r2,r2,r2
    1444:	1085883a 	add	r2,r2,r2
    1448:	2085883a 	add	r2,r4,r2
    144c:	10800017 	ldw	r2,0(r2)
    1450:	1887c83a 	sub	r3,r3,r2
    1454:	e0bff017 	ldw	r2,-64(fp)
    1458:	11001017 	ldw	r4,64(r2)
    145c:	e0bff917 	ldw	r2,-28(fp)
    1460:	1085883a 	add	r2,r2,r2
    1464:	1085883a 	add	r2,r2,r2
    1468:	2085883a 	add	r2,r4,r2
    146c:	10800017 	ldw	r2,0(r2)
    1470:	1887c83a 	sub	r3,r3,r2
    1474:	e0bff017 	ldw	r2,-64(fp)
    1478:	11001117 	ldw	r4,68(r2)
    147c:	e0bff917 	ldw	r2,-28(fp)
    1480:	1085883a 	add	r2,r2,r2
    1484:	1085883a 	add	r2,r2,r2
    1488:	2085883a 	add	r2,r4,r2
    148c:	10800017 	ldw	r2,0(r2)
    1490:	1885883a 	add	r2,r3,r2
    1494:	e0bff515 	stw	r2,-44(fp)
  mean = (cascade->p0[p_offset] - cascade->p1[p_offset] - cascade->p2[p_offset] + cascade->p3[p_offset]);
    1498:	e0bff017 	ldw	r2,-64(fp)
    149c:	10c01217 	ldw	r3,72(r2)
    14a0:	e0bffa17 	ldw	r2,-24(fp)
    14a4:	1085883a 	add	r2,r2,r2
    14a8:	1085883a 	add	r2,r2,r2
    14ac:	1885883a 	add	r2,r3,r2
    14b0:	10c00017 	ldw	r3,0(r2)
    14b4:	e0bff017 	ldw	r2,-64(fp)
    14b8:	11001317 	ldw	r4,76(r2)
    14bc:	e0bffa17 	ldw	r2,-24(fp)
    14c0:	1085883a 	add	r2,r2,r2
    14c4:	1085883a 	add	r2,r2,r2
    14c8:	2085883a 	add	r2,r4,r2
    14cc:	10800017 	ldw	r2,0(r2)
    14d0:	1887c83a 	sub	r3,r3,r2
    14d4:	e0bff017 	ldw	r2,-64(fp)
    14d8:	11001417 	ldw	r4,80(r2)
    14dc:	e0bffa17 	ldw	r2,-24(fp)
    14e0:	1085883a 	add	r2,r2,r2
    14e4:	1085883a 	add	r2,r2,r2
    14e8:	2085883a 	add	r2,r4,r2
    14ec:	10800017 	ldw	r2,0(r2)
    14f0:	1887c83a 	sub	r3,r3,r2
    14f4:	e0bff017 	ldw	r2,-64(fp)
    14f8:	11001517 	ldw	r4,84(r2)
    14fc:	e0bffa17 	ldw	r2,-24(fp)
    1500:	1085883a 	add	r2,r2,r2
    1504:	1085883a 	add	r2,r2,r2
    1508:	2085883a 	add	r2,r4,r2
    150c:	10800017 	ldw	r2,0(r2)
    1510:	1885883a 	add	r2,r3,r2
    1514:	e0bff615 	stw	r2,-40(fp)

  variance_norm_factor = (variance_norm_factor*cascade->inv_window_area);
    1518:	e0bff017 	ldw	r2,-64(fp)
    151c:	10800517 	ldw	r2,20(r2)
    1520:	1007883a 	mov	r3,r2
    1524:	e0bff517 	ldw	r2,-44(fp)
    1528:	10c5383a 	mul	r2,r2,r3
    152c:	e0bff515 	stw	r2,-44(fp)
  variance_norm_factor =  variance_norm_factor - mean*mean;
    1530:	e0fff617 	ldw	r3,-40(fp)
    1534:	e0bff617 	ldw	r2,-40(fp)
    1538:	1887383a 	mul	r3,r3,r2
    153c:	e0bff517 	ldw	r2,-44(fp)
    1540:	10c5c83a 	sub	r2,r2,r3
    1544:	e0bff515 	stw	r2,-44(fp)
   * In GPU, it is wise to convert the variance norm
   * into floating point, and use HW sqrtf function.
   * More info:
   * http://docs.nvidia.com/cuda/cuda-c-programming-guide/index.html#standard-functions
   **********************************************/
  if( variance_norm_factor > 0 )
    1548:	e0bff517 	ldw	r2,-44(fp)
    154c:	1005003a 	cmpeq	r2,r2,zero
    1550:	1000041e 	bne	r2,zero,1564 <runCascadeClassifier+0x1c0>
    variance_norm_factor = int_sqrt(variance_norm_factor);
    1554:	e13ff517 	ldw	r4,-44(fp)
    1558:	0000ad40 	call	ad4 <_Z8int_sqrtj>
    155c:	e0bff515 	stw	r2,-44(fp)
    1560:	00000206 	br	156c <runCascadeClassifier+0x1c8>
  else
    variance_norm_factor = 1;
    1564:	00800044 	movi	r2,1
    1568:	e0bff515 	stw	r2,-44(fp)
   *
   * Filters in the same stage are also independent,
   * except that filter results need to be merged,
   * and compared with a per-stage threshold.
   *************************************************/
  for( i = start_stage; i < cascade->n_stages; i++ )
    156c:	e0bffe17 	ldw	r2,-8(fp)
    1570:	e0bff815 	stw	r2,-32(fp)
    1574:	00005006 	br	16b8 <runCascadeClassifier+0x314>
       * To avoid it from limiting parallelism,
       * we can duplicate it multiple times,
       * e.g., using stage_sum_array[number_of_threads].
       * Then threads only need to sync at the end
       ***************************************************/
      stage_sum = 0;
    1578:	e03ff115 	stw	zero,-60(fp)

      for( j = 0; j < stages_array[i]; j++ )
    157c:	e03ff715 	stw	zero,-36(fp)
    1580:	00001c06 	br	15f4 <runCascadeClassifier+0x250>
	{
	  /**************************************************
	   * Send the shifted window to a haar filter.
	   **************************************************/
	  stage_sum += evalWeakClassifier(variance_norm_factor, p_offset, haar_counter, w_index, r_index);
    1584:	e13ff517 	ldw	r4,-44(fp)
    1588:	e0bff217 	ldw	r2,-56(fp)
    158c:	d8800015 	stw	r2,0(sp)
    1590:	e17ffa17 	ldw	r5,-24(fp)
    1594:	e1bff417 	ldw	r6,-48(fp)
    1598:	e1fff317 	ldw	r7,-52(fp)
    159c:	00025700 	call	2570 <_Z18evalWeakClassifieriiiii>
    15a0:	1007883a 	mov	r3,r2
    15a4:	e0bff117 	ldw	r2,-60(fp)
    15a8:	10c5883a 	add	r2,r2,r3
    15ac:	e0bff115 	stw	r2,-60(fp)
	  n_features++;
    15b0:	d0a70117 	ldw	r2,-25596(gp)
    15b4:	1009883a 	mov	r4,r2
    15b8:	014fe034 	movhi	r5,16256
    15bc:	000f5980 	call	f598 <__addsf3>
    15c0:	d0a70115 	stw	r2,-25596(gp)
	  haar_counter++;
    15c4:	e0bff417 	ldw	r2,-48(fp)
    15c8:	10800044 	addi	r2,r2,1
    15cc:	e0bff415 	stw	r2,-48(fp)
	  w_index+=3;
    15d0:	e0bff317 	ldw	r2,-52(fp)
    15d4:	108000c4 	addi	r2,r2,3
    15d8:	e0bff315 	stw	r2,-52(fp)
	  r_index+=12;
    15dc:	e0bff217 	ldw	r2,-56(fp)
    15e0:	10800304 	addi	r2,r2,12
    15e4:	e0bff215 	stw	r2,-56(fp)
       * e.g., using stage_sum_array[number_of_threads].
       * Then threads only need to sync at the end
       ***************************************************/
      stage_sum = 0;

      for( j = 0; j < stages_array[i]; j++ )
    15e8:	e0bff717 	ldw	r2,-36(fp)
    15ec:	10800044 	addi	r2,r2,1
    15f0:	e0bff715 	stw	r2,-36(fp)
    15f4:	e0bff817 	ldw	r2,-32(fp)
    15f8:	1085883a 	add	r2,r2,r2
    15fc:	1085883a 	add	r2,r2,r2
    1600:	1007883a 	mov	r3,r2
    1604:	d0a70317 	ldw	r2,-25588(gp)
    1608:	1885883a 	add	r2,r3,r2
    160c:	10c00017 	ldw	r3,0(r2)
    1610:	e0bff717 	ldw	r2,-36(fp)
    1614:	10ffdb16 	blt	r2,r3,1584 <runCascadeClassifier+0x1e0>
       * and the search is abandoned at the i-th stage (-i).
       * Otherwise, a face is detected (1)
       **************************************************************/

      /* the number "0.4" is empirically chosen for 5kk73 */
      if( stage_sum < 0.4*stages_thresh_array[i] ){
    1618:	e13ff117 	ldw	r4,-60(fp)
    161c:	00105100 	call	10510 <__floatsidf>
    1620:	1021883a 	mov	r16,r2
    1624:	1823883a 	mov	r17,r3
    1628:	e0bff817 	ldw	r2,-32(fp)
    162c:	1085883a 	add	r2,r2,r2
    1630:	1085883a 	add	r2,r2,r2
    1634:	1007883a 	mov	r3,r2
    1638:	d0a70a17 	ldw	r2,-25560(gp)
    163c:	1885883a 	add	r2,r3,r2
    1640:	11000017 	ldw	r4,0(r2)
    1644:	00105100 	call	10510 <__floatsidf>
    1648:	100b883a 	mov	r5,r2
    164c:	180d883a 	mov	r6,r3
    1650:	2809883a 	mov	r4,r5
    1654:	300b883a 	mov	r5,r6
    1658:	01a666b4 	movhi	r6,39322
    165c:	31a66684 	addi	r6,r6,-26214
    1660:	01cff6b4 	movhi	r7,16346
    1664:	39e66644 	addi	r7,r7,-26215
    1668:	00100c40 	call	100c4 <__muldf3>
    166c:	1009883a 	mov	r4,r2
    1670:	180b883a 	mov	r5,r3
    1674:	2005883a 	mov	r2,r4
    1678:	2807883a 	mov	r3,r5
    167c:	8009883a 	mov	r4,r16
    1680:	880b883a 	mov	r5,r17
    1684:	100d883a 	mov	r6,r2
    1688:	180f883a 	mov	r7,r3
    168c:	00104880 	call	10488 <__ltdf2>
    1690:	1004803a 	cmplt	r2,r2,zero
    1694:	1000011e 	bne	r2,zero,169c <runCascadeClassifier+0x2f8>
    1698:	00000406 	br	16ac <runCascadeClassifier+0x308>
	return -i;
    169c:	e0bff817 	ldw	r2,-32(fp)
    16a0:	0085c83a 	sub	r2,zero,r2
    16a4:	e0bfff15 	stw	r2,-4(fp)
    16a8:	00000906 	br	16d0 <runCascadeClassifier+0x32c>
   *
   * Filters in the same stage are also independent,
   * except that filter results need to be merged,
   * and compared with a per-stage threshold.
   *************************************************/
  for( i = start_stage; i < cascade->n_stages; i++ )
    16ac:	e0bff817 	ldw	r2,-32(fp)
    16b0:	10800044 	addi	r2,r2,1
    16b4:	e0bff815 	stw	r2,-32(fp)
    16b8:	e0bff017 	ldw	r2,-64(fp)
    16bc:	10c00017 	ldw	r3,0(r2)
    16c0:	e0bff817 	ldw	r2,-32(fp)
    16c4:	10ffac16 	blt	r2,r3,1578 <runCascadeClassifier+0x1d4>
      /* the number "0.4" is empirically chosen for 5kk73 */
      if( stage_sum < 0.4*stages_thresh_array[i] ){
	return -i;
      } /* end of the per-stage thresholding */
    } /* end of i loop */
  return 1;
    16c8:	00800044 	movi	r2,1
    16cc:	e0bfff15 	stw	r2,-4(fp)
    16d0:	e0bfff17 	ldw	r2,-4(fp)
}
    16d4:	e037883a 	mov	sp,fp
    16d8:	dfc00317 	ldw	ra,12(sp)
    16dc:	df000217 	ldw	fp,8(sp)
    16e0:	dc400117 	ldw	r17,4(sp)
    16e4:	dc000017 	ldw	r16,0(sp)
    16e8:	dec00404 	addi	sp,sp,16
    16ec:	f800283a 	ret

000016f0 <_Z14integralImagesP7MyImageP10MyIntImageS2_>:
 * Compute the integral image (and squared integral)
 * Integral image helps quickly sum up an area.
 * More info:
 * http://en.wikipedia.org/wiki/Summed_area_table
 ****************************************************/
void integralImages( MyImage *src, MyIntImage *sum, MyIntImage *sqsum )
    16f0:	defff004 	addi	sp,sp,-64
    16f4:	df000f15 	stw	fp,60(sp)
    16f8:	df000f04 	addi	fp,sp,60
    16fc:	e13ffd15 	stw	r4,-12(fp)
    1700:	e17ffe15 	stw	r5,-8(fp)
    1704:	e1bfff15 	stw	r6,-4(fp)
{
  int x, y, s, sq, t, tq;
  unsigned char it;
  int height = src->height;
    1708:	e0bffd17 	ldw	r2,-12(fp)
    170c:	10800117 	ldw	r2,4(r2)
    1710:	e0bff515 	stw	r2,-44(fp)
  int width = src->width;
    1714:	e0bffd17 	ldw	r2,-12(fp)
    1718:	10800017 	ldw	r2,0(r2)
    171c:	e0bff415 	stw	r2,-48(fp)
  unsigned char *data = src->data;
    1720:	e0bffd17 	ldw	r2,-12(fp)
    1724:	10800317 	ldw	r2,12(r2)
    1728:	e0bff315 	stw	r2,-52(fp)
  int * sumData = sum->data;
    172c:	e0bffe17 	ldw	r2,-8(fp)
    1730:	10800217 	ldw	r2,8(r2)
    1734:	e0bff215 	stw	r2,-56(fp)
  int * sqsumData = sqsum->data;
    1738:	e0bfff17 	ldw	r2,-4(fp)
    173c:	10800217 	ldw	r2,8(r2)
    1740:	e0bff115 	stw	r2,-60(fp)
  for( y = 0; y < height; y++)
    1744:	e03ffb15 	stw	zero,-20(fp)
    1748:	00005e06 	br	18c4 <_Z14integralImagesP7MyImageP10MyIntImageS2_+0x1d4>
    {
      s = 0;
    174c:	e03ffa15 	stw	zero,-24(fp)
      sq = 0;
    1750:	e03ff915 	stw	zero,-28(fp)
      /* loop over the number of columns */
      for( x = 0; x < width; x ++)
    1754:	e03ffc15 	stw	zero,-16(fp)
    1758:	00005406 	br	18ac <_Z14integralImagesP7MyImageP10MyIntImageS2_+0x1bc>
	{
	  it = data[y*width+x];
    175c:	e0fffb17 	ldw	r3,-20(fp)
    1760:	e0bff417 	ldw	r2,-48(fp)
    1764:	1887383a 	mul	r3,r3,r2
    1768:	e0bffc17 	ldw	r2,-16(fp)
    176c:	1885883a 	add	r2,r3,r2
    1770:	1007883a 	mov	r3,r2
    1774:	e0bff317 	ldw	r2,-52(fp)
    1778:	1885883a 	add	r2,r3,r2
    177c:	10800003 	ldbu	r2,0(r2)
    1780:	e0bff605 	stb	r2,-40(fp)
	  /* sum of the current row (integer)*/
	  s += it; 
    1784:	e0fff603 	ldbu	r3,-40(fp)
    1788:	e0bffa17 	ldw	r2,-24(fp)
    178c:	10c5883a 	add	r2,r2,r3
    1790:	e0bffa15 	stw	r2,-24(fp)
	  sq += it*it;
    1794:	e0fff603 	ldbu	r3,-40(fp)
    1798:	e0bff603 	ldbu	r2,-40(fp)
    179c:	1887383a 	mul	r3,r3,r2
    17a0:	e0bff917 	ldw	r2,-28(fp)
    17a4:	10c5883a 	add	r2,r2,r3
    17a8:	e0bff915 	stw	r2,-28(fp)

	  t = s;
    17ac:	e0bffa17 	ldw	r2,-24(fp)
    17b0:	e0bff815 	stw	r2,-32(fp)
	  tq = sq;
    17b4:	e0bff917 	ldw	r2,-28(fp)
    17b8:	e0bff715 	stw	r2,-36(fp)
	  if (y != 0)
    17bc:	e0bffb17 	ldw	r2,-20(fp)
    17c0:	1005003a 	cmpeq	r2,r2,zero
    17c4:	10001e1e 	bne	r2,zero,1840 <_Z14integralImagesP7MyImageP10MyIntImageS2_+0x150>
	    {
	      t += sumData[(y-1)*width+x];
    17c8:	e0bffb17 	ldw	r2,-20(fp)
    17cc:	10ffffc4 	addi	r3,r2,-1
    17d0:	e0bff417 	ldw	r2,-48(fp)
    17d4:	1887383a 	mul	r3,r3,r2
    17d8:	e0bffc17 	ldw	r2,-16(fp)
    17dc:	1885883a 	add	r2,r3,r2
    17e0:	1085883a 	add	r2,r2,r2
    17e4:	1085883a 	add	r2,r2,r2
    17e8:	1007883a 	mov	r3,r2
    17ec:	e0bff217 	ldw	r2,-56(fp)
    17f0:	1885883a 	add	r2,r3,r2
    17f4:	10c00017 	ldw	r3,0(r2)
    17f8:	e0bff817 	ldw	r2,-32(fp)
    17fc:	10c5883a 	add	r2,r2,r3
    1800:	e0bff815 	stw	r2,-32(fp)
	      tq += sqsumData[(y-1)*width+x];
    1804:	e0bffb17 	ldw	r2,-20(fp)
    1808:	10ffffc4 	addi	r3,r2,-1
    180c:	e0bff417 	ldw	r2,-48(fp)
    1810:	1887383a 	mul	r3,r3,r2
    1814:	e0bffc17 	ldw	r2,-16(fp)
    1818:	1885883a 	add	r2,r3,r2
    181c:	1085883a 	add	r2,r2,r2
    1820:	1085883a 	add	r2,r2,r2
    1824:	1007883a 	mov	r3,r2
    1828:	e0bff117 	ldw	r2,-60(fp)
    182c:	1885883a 	add	r2,r3,r2
    1830:	10c00017 	ldw	r3,0(r2)
    1834:	e0bff717 	ldw	r2,-36(fp)
    1838:	10c5883a 	add	r2,r2,r3
    183c:	e0bff715 	stw	r2,-36(fp)
	    }
	  sumData[y*width+x]=t;
    1840:	e0fffb17 	ldw	r3,-20(fp)
    1844:	e0bff417 	ldw	r2,-48(fp)
    1848:	1887383a 	mul	r3,r3,r2
    184c:	e0bffc17 	ldw	r2,-16(fp)
    1850:	1885883a 	add	r2,r3,r2
    1854:	1085883a 	add	r2,r2,r2
    1858:	1085883a 	add	r2,r2,r2
    185c:	1007883a 	mov	r3,r2
    1860:	e0bff217 	ldw	r2,-56(fp)
    1864:	1887883a 	add	r3,r3,r2
    1868:	e0bff817 	ldw	r2,-32(fp)
    186c:	18800015 	stw	r2,0(r3)
	  sqsumData[y*width+x]=tq;
    1870:	e0fffb17 	ldw	r3,-20(fp)
    1874:	e0bff417 	ldw	r2,-48(fp)
    1878:	1887383a 	mul	r3,r3,r2
    187c:	e0bffc17 	ldw	r2,-16(fp)
    1880:	1885883a 	add	r2,r3,r2
    1884:	1085883a 	add	r2,r2,r2
    1888:	1085883a 	add	r2,r2,r2
    188c:	1007883a 	mov	r3,r2
    1890:	e0bff117 	ldw	r2,-60(fp)
    1894:	1887883a 	add	r3,r3,r2
    1898:	e0bff717 	ldw	r2,-36(fp)
    189c:	18800015 	stw	r2,0(r3)
  for( y = 0; y < height; y++)
    {
      s = 0;
      sq = 0;
      /* loop over the number of columns */
      for( x = 0; x < width; x ++)
    18a0:	e0bffc17 	ldw	r2,-16(fp)
    18a4:	10800044 	addi	r2,r2,1
    18a8:	e0bffc15 	stw	r2,-16(fp)
    18ac:	e0fffc17 	ldw	r3,-16(fp)
    18b0:	e0bff417 	ldw	r2,-48(fp)
    18b4:	18bfa916 	blt	r3,r2,175c <_Z14integralImagesP7MyImageP10MyIntImageS2_+0x6c>
  int height = src->height;
  int width = src->width;
  unsigned char *data = src->data;
  int * sumData = sum->data;
  int * sqsumData = sqsum->data;
  for( y = 0; y < height; y++)
    18b8:	e0bffb17 	ldw	r2,-20(fp)
    18bc:	10800044 	addi	r2,r2,1
    18c0:	e0bffb15 	stw	r2,-20(fp)
    18c4:	e0fffb17 	ldw	r3,-20(fp)
    18c8:	e0bff517 	ldw	r2,-44(fp)
    18cc:	18bf9f16 	blt	r3,r2,174c <_Z14integralImagesP7MyImageP10MyIntImageS2_+0x5c>
	    }
	  sumData[y*width+x]=t;
	  sqsumData[y*width+x]=tq;
	}
    }
}
    18d0:	e037883a 	mov	sp,fp
    18d4:	df000017 	ldw	fp,0(sp)
    18d8:	dec00104 	addi	sp,sp,4
    18dc:	f800283a 	ret

000018e0 <_Z15nearestNeighborP7MyImageS0_>:

/***********************************************************
 * This function downsample an image using nearest neighbor
 * It is used to build the image pyramid
 **********************************************************/
void nearestNeighbor (MyImage *src, MyImage *dst)
    18e0:	deffed04 	addi	sp,sp,-76
    18e4:	dfc01215 	stw	ra,72(sp)
    18e8:	df001115 	stw	fp,68(sp)
    18ec:	df001104 	addi	fp,sp,68
    18f0:	e13ffe15 	stw	r4,-8(fp)
    18f4:	e17fff15 	stw	r5,-4(fp)
  int j;
  int x;
  int i;
  unsigned char* t;
  unsigned char* p;
  int w1 = src->width;
    18f8:	e0bffe17 	ldw	r2,-8(fp)
    18fc:	10800017 	ldw	r2,0(r2)
    1900:	e0bff715 	stw	r2,-36(fp)
  int h1 = src->height;
    1904:	e0bffe17 	ldw	r2,-8(fp)
    1908:	10800117 	ldw	r2,4(r2)
    190c:	e0bff615 	stw	r2,-40(fp)
  int w2 = dst->width;
    1910:	e0bfff17 	ldw	r2,-4(fp)
    1914:	10800017 	ldw	r2,0(r2)
    1918:	e0bff515 	stw	r2,-44(fp)
  int h2 = dst->height;
    191c:	e0bfff17 	ldw	r2,-4(fp)
    1920:	10800117 	ldw	r2,4(r2)
    1924:	e0bff415 	stw	r2,-48(fp)

  int rat = 0;
    1928:	e03ff315 	stw	zero,-52(fp)

  unsigned char* src_data = src->data;
    192c:	e0bffe17 	ldw	r2,-8(fp)
    1930:	10800317 	ldw	r2,12(r2)
    1934:	e0bff215 	stw	r2,-56(fp)
  unsigned char* dst_data = dst->data;
    1938:	e0bfff17 	ldw	r2,-4(fp)
    193c:	10800317 	ldw	r2,12(r2)
    1940:	e0bff115 	stw	r2,-60(fp)


  int x_ratio = (int)((w1<<16)/w2) +1;
    1944:	e0bff717 	ldw	r2,-36(fp)
    1948:	1008943a 	slli	r4,r2,16
    194c:	e17ff517 	ldw	r5,-44(fp)
    1950:	00107940 	call	10794 <__divsi3>
    1954:	10800044 	addi	r2,r2,1
    1958:	e0bff015 	stw	r2,-64(fp)
  int y_ratio = (int)((h1<<16)/h2) +1;
    195c:	e0bff617 	ldw	r2,-40(fp)
    1960:	1008943a 	slli	r4,r2,16
    1964:	e17ff417 	ldw	r5,-48(fp)
    1968:	00107940 	call	10794 <__divsi3>
    196c:	10800044 	addi	r2,r2,1
    1970:	e0bfef15 	stw	r2,-68(fp)

  for (i=0;i<h2;i++)
    1974:	e03ffa15 	stw	zero,-24(fp)
    1978:	00003006 	br	1a3c <_Z15nearestNeighborP7MyImageS0_+0x15c>
    {
      t = dst_data + i*w2;
    197c:	e0fffa17 	ldw	r3,-24(fp)
    1980:	e0bff517 	ldw	r2,-44(fp)
    1984:	1885383a 	mul	r2,r3,r2
    1988:	1007883a 	mov	r3,r2
    198c:	e0bff117 	ldw	r2,-60(fp)
    1990:	1885883a 	add	r2,r3,r2
    1994:	e0bff915 	stw	r2,-28(fp)
      y = ((i*y_ratio)>>16);
    1998:	e0fffa17 	ldw	r3,-24(fp)
    199c:	e0bfef17 	ldw	r2,-68(fp)
    19a0:	1885383a 	mul	r2,r3,r2
    19a4:	1005d43a 	srai	r2,r2,16
    19a8:	e0bffd15 	stw	r2,-12(fp)
      p = src_data + y*w1;
    19ac:	e0fffd17 	ldw	r3,-12(fp)
    19b0:	e0bff717 	ldw	r2,-36(fp)
    19b4:	1885383a 	mul	r2,r3,r2
    19b8:	1007883a 	mov	r3,r2
    19bc:	e0bff217 	ldw	r2,-56(fp)
    19c0:	1885883a 	add	r2,r3,r2
    19c4:	e0bff815 	stw	r2,-32(fp)
      rat = 0;
    19c8:	e03ff315 	stw	zero,-52(fp)
      for (j=0;j<w2;j++)
    19cc:	e03ffc15 	stw	zero,-16(fp)
    19d0:	00001406 	br	1a24 <_Z15nearestNeighborP7MyImageS0_+0x144>
	{
	  x = (rat>>16);
    19d4:	e0bff317 	ldw	r2,-52(fp)
    19d8:	1005d43a 	srai	r2,r2,16
    19dc:	e0bffb15 	stw	r2,-20(fp)
	  *t++ = p[x];
    19e0:	e0bffb17 	ldw	r2,-20(fp)
    19e4:	1007883a 	mov	r3,r2
    19e8:	e0bff817 	ldw	r2,-32(fp)
    19ec:	1885883a 	add	r2,r3,r2
    19f0:	10c00003 	ldbu	r3,0(r2)
    19f4:	e0bff917 	ldw	r2,-28(fp)
    19f8:	10c00005 	stb	r3,0(r2)
    19fc:	e0bff917 	ldw	r2,-28(fp)
    1a00:	10800044 	addi	r2,r2,1
    1a04:	e0bff915 	stw	r2,-28(fp)
	  rat += x_ratio;
    1a08:	e0fff317 	ldw	r3,-52(fp)
    1a0c:	e0bff017 	ldw	r2,-64(fp)
    1a10:	1885883a 	add	r2,r3,r2
    1a14:	e0bff315 	stw	r2,-52(fp)
    {
      t = dst_data + i*w2;
      y = ((i*y_ratio)>>16);
      p = src_data + y*w1;
      rat = 0;
      for (j=0;j<w2;j++)
    1a18:	e0bffc17 	ldw	r2,-16(fp)
    1a1c:	10800044 	addi	r2,r2,1
    1a20:	e0bffc15 	stw	r2,-16(fp)
    1a24:	e0fffc17 	ldw	r3,-16(fp)
    1a28:	e0bff517 	ldw	r2,-44(fp)
    1a2c:	18bfe916 	blt	r3,r2,19d4 <_Z15nearestNeighborP7MyImageS0_+0xf4>


  int x_ratio = (int)((w1<<16)/w2) +1;
  int y_ratio = (int)((h1<<16)/h2) +1;

  for (i=0;i<h2;i++)
    1a30:	e0bffa17 	ldw	r2,-24(fp)
    1a34:	10800044 	addi	r2,r2,1
    1a38:	e0bffa15 	stw	r2,-24(fp)
    1a3c:	e0fffa17 	ldw	r3,-24(fp)
    1a40:	e0bff417 	ldw	r2,-48(fp)
    1a44:	18bfcd16 	blt	r3,r2,197c <_Z15nearestNeighborP7MyImageS0_+0x9c>
	  x = (rat>>16);
	  *t++ = p[x];
	  rat += x_ratio;
	}
    }
}
    1a48:	e037883a 	mov	sp,fp
    1a4c:	dfc00117 	ldw	ra,4(sp)
    1a50:	df000017 	ldw	fp,0(sp)
    1a54:	dec00204 	addi	sp,sp,8
    1a58:	f800283a 	ret

00001a5c <releaseTextClassifier>:
    } /* end of i loop */
  fclose(fp);
}


void releaseTextClassifier()
    1a5c:	defffe04 	addi	sp,sp,-8
    1a60:	dfc00115 	stw	ra,4(sp)
    1a64:	df000015 	stw	fp,0(sp)
    1a68:	d839883a 	mov	fp,sp
{
  free(stages_array);
    1a6c:	d1270317 	ldw	r4,-25588(gp)
    1a70:	00131780 	call	13178 <free>
  free(rectangles_array);
    1a74:	d1270417 	ldw	r4,-25584(gp)
    1a78:	00131780 	call	13178 <free>
  free(scaled_rectangles_array);
    1a7c:	d1270517 	ldw	r4,-25580(gp)
    1a80:	00131780 	call	13178 <free>
  free(weights_array);
    1a84:	d1270617 	ldw	r4,-25576(gp)
    1a88:	00131780 	call	13178 <free>
  free(tree_thresh_array);
    1a8c:	d1270717 	ldw	r4,-25572(gp)
    1a90:	00131780 	call	13178 <free>
  free(alpha1_array);
    1a94:	d1270817 	ldw	r4,-25568(gp)
    1a98:	00131780 	call	13178 <free>
  free(alpha2_array);
    1a9c:	d1270917 	ldw	r4,-25564(gp)
    1aa0:	00131780 	call	13178 <free>
  free(stages_thresh_array);
    1aa4:	d1270a17 	ldw	r4,-25560(gp)
    1aa8:	00131780 	call	13178 <free>
}
    1aac:	e037883a 	mov	sp,fp
    1ab0:	dfc00117 	ldw	ra,4(sp)
    1ab4:	df000017 	ldw	fp,0(sp)
    1ab8:	dec00204 	addi	sp,sp,8
    1abc:	f800283a 	ret

00001ac0 <readTextClassifier>:
	  rat += x_ratio;
	}
    }
}

void readTextClassifier()//(myCascade * cascade)
    1ac0:	deffef04 	addi	sp,sp,-68
    1ac4:	dfc01015 	stw	ra,64(sp)
    1ac8:	df000f15 	stw	fp,60(sp)
    1acc:	dc000e15 	stw	r16,56(sp)
    1ad0:	df000e04 	addi	fp,sp,56
{
  /*number of stages of the cascade classifier*/
  int stages;
  /*total number of weak classifiers (one node each)*/
  int total_nodes = 0;
    1ad4:	e03ffb15 	stw	zero,-20(fp)
  int i, j, k, l;
  char mystring [12];
  int r_index = 0;
    1ad8:	e03ff615 	stw	zero,-40(fp)
  int w_index = 0;
    1adc:	e03ff515 	stw	zero,-44(fp)
  int tree_index = 0;
    1ae0:	e03ff415 	stw	zero,-48(fp)
  FILE *finfo = fopen("/mnt/host/info.txt", "r");
    1ae4:	010000b4 	movhi	r4,2
    1ae8:	21399d04 	addi	r4,r4,-6540
    1aec:	014000b4 	movhi	r5,2
    1af0:	2979a204 	addi	r5,r5,-6520
    1af4:	0011f4c0 	call	11f4c <fopen>
    1af8:	e0bff315 	stw	r2,-52(fp)
  /**************************************************
  /* how many stages are in the cascaded filter? 
  /* the first line of info.txt is the number of stages 
  /* (in the 5kk73 example, there are 25 stages)
  **************************************************/
  if ( fgets (mystring , 12 , finfo) != NULL )
    1afc:	e13ffd04 	addi	r4,fp,-12
    1b00:	01400304 	movi	r5,12
    1b04:	e1bff317 	ldw	r6,-52(fp)
    1b08:	0011b740 	call	11b74 <fgets>
    1b0c:	1004c03a 	cmpne	r2,r2,zero
    1b10:	10803fcc 	andi	r2,r2,255
    1b14:	1005003a 	cmpeq	r2,r2,zero
    1b18:	1000031e 	bne	r2,zero,1b28 <readTextClassifier+0x68>
    {
      stages = atoi(mystring);
    1b1c:	e13ffd04 	addi	r4,fp,-12
    1b20:	00116cc0 	call	116cc <atoi>
    1b24:	e0bffc15 	stw	r2,-16(fp)
    }
  i = 0;
    1b28:	e03ffa15 	stw	zero,-24(fp)

  stages_array = (int *)malloc(sizeof(int)*stages);
    1b2c:	e0bffc17 	ldw	r2,-16(fp)
    1b30:	1085883a 	add	r2,r2,r2
    1b34:	1085883a 	add	r2,r2,r2
    1b38:	1009883a 	mov	r4,r2
    1b3c:	001318c0 	call	1318c <malloc>
    1b40:	d0a70315 	stw	r2,-25588(gp)
   * how many filters in each stage? 
   * They are specified in info.txt,
   * starting from second line.
   * (in the 5kk73 example, from line 2 to line 26)
   *************************************************/
  while ( fgets (mystring , 12 , finfo) != NULL )
    1b44:	00001606 	br	1ba0 <readTextClassifier+0xe0>
    {
      stages_array[i] = atoi(mystring);
    1b48:	e0bffa17 	ldw	r2,-24(fp)
    1b4c:	1085883a 	add	r2,r2,r2
    1b50:	1085883a 	add	r2,r2,r2
    1b54:	1007883a 	mov	r3,r2
    1b58:	d0a70317 	ldw	r2,-25588(gp)
    1b5c:	18a1883a 	add	r16,r3,r2
    1b60:	e13ffd04 	addi	r4,fp,-12
    1b64:	00116cc0 	call	116cc <atoi>
    1b68:	80800015 	stw	r2,0(r16)
      total_nodes += stages_array[i];
    1b6c:	e0bffa17 	ldw	r2,-24(fp)
    1b70:	1085883a 	add	r2,r2,r2
    1b74:	1085883a 	add	r2,r2,r2
    1b78:	1007883a 	mov	r3,r2
    1b7c:	d0a70317 	ldw	r2,-25588(gp)
    1b80:	1885883a 	add	r2,r3,r2
    1b84:	10c00017 	ldw	r3,0(r2)
    1b88:	e0bffb17 	ldw	r2,-20(fp)
    1b8c:	10c5883a 	add	r2,r2,r3
    1b90:	e0bffb15 	stw	r2,-20(fp)
      i++;
    1b94:	e0bffa17 	ldw	r2,-24(fp)
    1b98:	10800044 	addi	r2,r2,1
    1b9c:	e0bffa15 	stw	r2,-24(fp)
   * how many filters in each stage? 
   * They are specified in info.txt,
   * starting from second line.
   * (in the 5kk73 example, from line 2 to line 26)
   *************************************************/
  while ( fgets (mystring , 12 , finfo) != NULL )
    1ba0:	e13ffd04 	addi	r4,fp,-12
    1ba4:	01400304 	movi	r5,12
    1ba8:	e1bff317 	ldw	r6,-52(fp)
    1bac:	0011b740 	call	11b74 <fgets>
    1bb0:	1004c03a 	cmpne	r2,r2,zero
    1bb4:	10803fcc 	andi	r2,r2,255
    1bb8:	1004c03a 	cmpne	r2,r2,zero
    1bbc:	103fe21e 	bne	r2,zero,1b48 <readTextClassifier+0x88>
    {
      stages_array[i] = atoi(mystring);
      total_nodes += stages_array[i];
      i++;
    }
  fclose(finfo);
    1bc0:	e13ff317 	ldw	r4,-52(fp)
    1bc4:	00117e80 	call	117e8 <fclose>
  /***********************************************
   * Allocate a lot of array structures
   * Note that, to increase parallelism,
   * some arrays need to be splitted or duplicated
   **********************************************/
  rectangles_array = (int *)malloc(sizeof(int)*total_nodes*12);
    1bc8:	e0bffb17 	ldw	r2,-20(fp)
    1bcc:	11000c24 	muli	r4,r2,48
    1bd0:	001318c0 	call	1318c <malloc>
    1bd4:	d0a70415 	stw	r2,-25584(gp)
  scaled_rectangles_array = (int **)malloc(sizeof(int*)*total_nodes*12);
    1bd8:	e0bffb17 	ldw	r2,-20(fp)
    1bdc:	11000c24 	muli	r4,r2,48
    1be0:	001318c0 	call	1318c <malloc>
    1be4:	d0a70515 	stw	r2,-25580(gp)
  weights_array = (int *)malloc(sizeof(int)*total_nodes*3);
    1be8:	e0bffb17 	ldw	r2,-20(fp)
    1bec:	11000324 	muli	r4,r2,12
    1bf0:	001318c0 	call	1318c <malloc>
    1bf4:	d0a70615 	stw	r2,-25576(gp)
  alpha1_array = (int*)malloc(sizeof(int)*total_nodes);
    1bf8:	e0bffb17 	ldw	r2,-20(fp)
    1bfc:	1085883a 	add	r2,r2,r2
    1c00:	1085883a 	add	r2,r2,r2
    1c04:	1009883a 	mov	r4,r2
    1c08:	001318c0 	call	1318c <malloc>
    1c0c:	d0a70815 	stw	r2,-25568(gp)
  alpha2_array = (int*)malloc(sizeof(int)*total_nodes);
    1c10:	e0bffb17 	ldw	r2,-20(fp)
    1c14:	1085883a 	add	r2,r2,r2
    1c18:	1085883a 	add	r2,r2,r2
    1c1c:	1009883a 	mov	r4,r2
    1c20:	001318c0 	call	1318c <malloc>
    1c24:	d0a70915 	stw	r2,-25564(gp)
  tree_thresh_array = (int*)malloc(sizeof(int)*total_nodes);
    1c28:	e0bffb17 	ldw	r2,-20(fp)
    1c2c:	1085883a 	add	r2,r2,r2
    1c30:	1085883a 	add	r2,r2,r2
    1c34:	1009883a 	mov	r4,r2
    1c38:	001318c0 	call	1318c <malloc>
    1c3c:	d0a70715 	stw	r2,-25572(gp)
  stages_thresh_array = (int*)malloc(sizeof(int)*stages);
    1c40:	e0bffc17 	ldw	r2,-16(fp)
    1c44:	1085883a 	add	r2,r2,r2
    1c48:	1085883a 	add	r2,r2,r2
    1c4c:	1009883a 	mov	r4,r2
    1c50:	001318c0 	call	1318c <malloc>
    1c54:	d0a70a15 	stw	r2,-25560(gp)
  FILE *fp = fopen("/mnt/host/class.txt", "r");
    1c58:	010000b4 	movhi	r4,2
    1c5c:	2139a304 	addi	r4,r4,-6516
    1c60:	014000b4 	movhi	r5,2
    1c64:	2979a204 	addi	r5,r5,-6520
    1c68:	0011f4c0 	call	11f4c <fopen>
    1c6c:	e0bff215 	stw	r2,-56(fp)
   * 17: alpha 1 of the filter
   * 18: alpha 2 of the filter
   ******************************************/

  /* loop over n of stages */
  for (i = 0; i < stages; i++)
    1c70:	e03ffa15 	stw	zero,-24(fp)
    1c74:	00009a06 	br	1ee0 <readTextClassifier+0x420>
    {    /* loop over n of trees */
      for (j = 0; j < stages_array[i]; j++)
    1c78:	e03ff915 	stw	zero,-28(fp)
    1c7c:	00008c06 	br	1eb0 <readTextClassifier+0x3f0>
	{	/* loop over n of rectangular features */
	  for(k = 0; k < 3; k++)
    1c80:	e03ff815 	stw	zero,-32(fp)
    1c84:	00003306 	br	1d54 <readTextClassifier+0x294>
	    {	/* loop over the n of vertices */
	      for (l = 0; l <4; l++)
    1c88:	e03ff715 	stw	zero,-36(fp)
    1c8c:	00001706 	br	1cec <readTextClassifier+0x22c>
		{
		  if (fgets (mystring , 12 , fp) != NULL)
    1c90:	e13ffd04 	addi	r4,fp,-12
    1c94:	01400304 	movi	r5,12
    1c98:	e1bff217 	ldw	r6,-56(fp)
    1c9c:	0011b740 	call	11b74 <fgets>
    1ca0:	1004c03a 	cmpne	r2,r2,zero
    1ca4:	10803fcc 	andi	r2,r2,255
    1ca8:	1005003a 	cmpeq	r2,r2,zero
    1cac:	1000121e 	bne	r2,zero,1cf8 <readTextClassifier+0x238>
		    rectangles_array[r_index] = atoi(mystring);
    1cb0:	e0bff617 	ldw	r2,-40(fp)
    1cb4:	1085883a 	add	r2,r2,r2
    1cb8:	1085883a 	add	r2,r2,r2
    1cbc:	1007883a 	mov	r3,r2
    1cc0:	d0a70417 	ldw	r2,-25584(gp)
    1cc4:	18a1883a 	add	r16,r3,r2
    1cc8:	e13ffd04 	addi	r4,fp,-12
    1ccc:	00116cc0 	call	116cc <atoi>
    1cd0:	80800015 	stw	r2,0(r16)
		  else
		    break;
		  r_index++;
    1cd4:	e0bff617 	ldw	r2,-40(fp)
    1cd8:	10800044 	addi	r2,r2,1
    1cdc:	e0bff615 	stw	r2,-40(fp)
    {    /* loop over n of trees */
      for (j = 0; j < stages_array[i]; j++)
	{	/* loop over n of rectangular features */
	  for(k = 0; k < 3; k++)
	    {	/* loop over the n of vertices */
	      for (l = 0; l <4; l++)
    1ce0:	e0bff717 	ldw	r2,-36(fp)
    1ce4:	10800044 	addi	r2,r2,1
    1ce8:	e0bff715 	stw	r2,-36(fp)
    1cec:	e0bff717 	ldw	r2,-36(fp)
    1cf0:	10800110 	cmplti	r2,r2,4
    1cf4:	103fe61e 	bne	r2,zero,1c90 <readTextClassifier+0x1d0>
		    rectangles_array[r_index] = atoi(mystring);
		  else
		    break;
		  r_index++;
		} /* end of l loop */
	      if (fgets (mystring , 12 , fp) != NULL)
    1cf8:	e13ffd04 	addi	r4,fp,-12
    1cfc:	01400304 	movi	r5,12
    1d00:	e1bff217 	ldw	r6,-56(fp)
    1d04:	0011b740 	call	11b74 <fgets>
    1d08:	1004c03a 	cmpne	r2,r2,zero
    1d0c:	10803fcc 	andi	r2,r2,255
    1d10:	1005003a 	cmpeq	r2,r2,zero
    1d14:	1000121e 	bne	r2,zero,1d60 <readTextClassifier+0x2a0>
		{
		  weights_array[w_index] = atoi(mystring);
    1d18:	e0bff517 	ldw	r2,-44(fp)
    1d1c:	1085883a 	add	r2,r2,r2
    1d20:	1085883a 	add	r2,r2,r2
    1d24:	1007883a 	mov	r3,r2
    1d28:	d0a70617 	ldw	r2,-25576(gp)
    1d2c:	18a1883a 	add	r16,r3,r2
    1d30:	e13ffd04 	addi	r4,fp,-12
    1d34:	00116cc0 	call	116cc <atoi>
    1d38:	80800015 	stw	r2,0(r16)
		  /*TODO: make more general */
		  /*weights_array[w_index]>>=8; */
		}
	      else
		break;
	      w_index++;
    1d3c:	e0bff517 	ldw	r2,-44(fp)
    1d40:	10800044 	addi	r2,r2,1
    1d44:	e0bff515 	stw	r2,-44(fp)
  /* loop over n of stages */
  for (i = 0; i < stages; i++)
    {    /* loop over n of trees */
      for (j = 0; j < stages_array[i]; j++)
	{	/* loop over n of rectangular features */
	  for(k = 0; k < 3; k++)
    1d48:	e0bff817 	ldw	r2,-32(fp)
    1d4c:	10800044 	addi	r2,r2,1
    1d50:	e0bff815 	stw	r2,-32(fp)
    1d54:	e0bff817 	ldw	r2,-32(fp)
    1d58:	108000d0 	cmplti	r2,r2,3
    1d5c:	103fca1e 	bne	r2,zero,1c88 <readTextClassifier+0x1c8>
		}
	      else
		break;
	      w_index++;
	    } /* end of k loop */
	  if (fgets (mystring , 12 , fp) != NULL)
    1d60:	e13ffd04 	addi	r4,fp,-12
    1d64:	01400304 	movi	r5,12
    1d68:	e1bff217 	ldw	r6,-56(fp)
    1d6c:	0011b740 	call	11b74 <fgets>
    1d70:	1004c03a 	cmpne	r2,r2,zero
    1d74:	10803fcc 	andi	r2,r2,255
    1d78:	1005003a 	cmpeq	r2,r2,zero
    1d7c:	1000551e 	bne	r2,zero,1ed4 <readTextClassifier+0x414>
	    tree_thresh_array[tree_index]= atoi(mystring);
    1d80:	e0bff417 	ldw	r2,-48(fp)
    1d84:	1085883a 	add	r2,r2,r2
    1d88:	1085883a 	add	r2,r2,r2
    1d8c:	1007883a 	mov	r3,r2
    1d90:	d0a70717 	ldw	r2,-25572(gp)
    1d94:	18a1883a 	add	r16,r3,r2
    1d98:	e13ffd04 	addi	r4,fp,-12
    1d9c:	00116cc0 	call	116cc <atoi>
    1da0:	80800015 	stw	r2,0(r16)
	  else
	    break;
	  if (fgets (mystring , 12 , fp) != NULL)
    1da4:	e13ffd04 	addi	r4,fp,-12
    1da8:	01400304 	movi	r5,12
    1dac:	e1bff217 	ldw	r6,-56(fp)
    1db0:	0011b740 	call	11b74 <fgets>
    1db4:	1004c03a 	cmpne	r2,r2,zero
    1db8:	10803fcc 	andi	r2,r2,255
    1dbc:	1005003a 	cmpeq	r2,r2,zero
    1dc0:	1000441e 	bne	r2,zero,1ed4 <readTextClassifier+0x414>
	    alpha1_array[tree_index]= atoi(mystring);
    1dc4:	e0bff417 	ldw	r2,-48(fp)
    1dc8:	1085883a 	add	r2,r2,r2
    1dcc:	1085883a 	add	r2,r2,r2
    1dd0:	1007883a 	mov	r3,r2
    1dd4:	d0a70817 	ldw	r2,-25568(gp)
    1dd8:	18a1883a 	add	r16,r3,r2
    1ddc:	e13ffd04 	addi	r4,fp,-12
    1de0:	00116cc0 	call	116cc <atoi>
    1de4:	80800015 	stw	r2,0(r16)
	  else
	    break;
	  if (fgets (mystring , 12 , fp) != NULL)
    1de8:	e13ffd04 	addi	r4,fp,-12
    1dec:	01400304 	movi	r5,12
    1df0:	e1bff217 	ldw	r6,-56(fp)
    1df4:	0011b740 	call	11b74 <fgets>
    1df8:	1004c03a 	cmpne	r2,r2,zero
    1dfc:	10803fcc 	andi	r2,r2,255
    1e00:	1005003a 	cmpeq	r2,r2,zero
    1e04:	1000331e 	bne	r2,zero,1ed4 <readTextClassifier+0x414>
	    alpha2_array[tree_index]= atoi(mystring);
    1e08:	e0bff417 	ldw	r2,-48(fp)
    1e0c:	1085883a 	add	r2,r2,r2
    1e10:	1085883a 	add	r2,r2,r2
    1e14:	1007883a 	mov	r3,r2
    1e18:	d0a70917 	ldw	r2,-25564(gp)
    1e1c:	18a1883a 	add	r16,r3,r2
    1e20:	e13ffd04 	addi	r4,fp,-12
    1e24:	00116cc0 	call	116cc <atoi>
    1e28:	80800015 	stw	r2,0(r16)
	  else
	    break;
	  tree_index++;
    1e2c:	e0bff417 	ldw	r2,-48(fp)
    1e30:	10800044 	addi	r2,r2,1
    1e34:	e0bff415 	stw	r2,-48(fp)
	  if (j == stages_array[i]-1)
    1e38:	e0bffa17 	ldw	r2,-24(fp)
    1e3c:	1085883a 	add	r2,r2,r2
    1e40:	1085883a 	add	r2,r2,r2
    1e44:	1007883a 	mov	r3,r2
    1e48:	d0a70317 	ldw	r2,-25588(gp)
    1e4c:	1885883a 	add	r2,r3,r2
    1e50:	10800017 	ldw	r2,0(r2)
    1e54:	10ffffc4 	addi	r3,r2,-1
    1e58:	e0bff917 	ldw	r2,-28(fp)
    1e5c:	1880111e 	bne	r3,r2,1ea4 <readTextClassifier+0x3e4>
	    {
	      if (fgets (mystring , 12 , fp) != NULL)
    1e60:	e13ffd04 	addi	r4,fp,-12
    1e64:	01400304 	movi	r5,12
    1e68:	e1bff217 	ldw	r6,-56(fp)
    1e6c:	0011b740 	call	11b74 <fgets>
    1e70:	1004c03a 	cmpne	r2,r2,zero
    1e74:	10803fcc 	andi	r2,r2,255
    1e78:	1005003a 	cmpeq	r2,r2,zero
    1e7c:	1000151e 	bne	r2,zero,1ed4 <readTextClassifier+0x414>
		stages_thresh_array[i] = atoi(mystring);
    1e80:	e0bffa17 	ldw	r2,-24(fp)
    1e84:	1085883a 	add	r2,r2,r2
    1e88:	1085883a 	add	r2,r2,r2
    1e8c:	1007883a 	mov	r3,r2
    1e90:	d0a70a17 	ldw	r2,-25560(gp)
    1e94:	18a1883a 	add	r16,r3,r2
    1e98:	e13ffd04 	addi	r4,fp,-12
    1e9c:	00116cc0 	call	116cc <atoi>
    1ea0:	80800015 	stw	r2,0(r16)
   ******************************************/

  /* loop over n of stages */
  for (i = 0; i < stages; i++)
    {    /* loop over n of trees */
      for (j = 0; j < stages_array[i]; j++)
    1ea4:	e0bff917 	ldw	r2,-28(fp)
    1ea8:	10800044 	addi	r2,r2,1
    1eac:	e0bff915 	stw	r2,-28(fp)
    1eb0:	e0bffa17 	ldw	r2,-24(fp)
    1eb4:	1085883a 	add	r2,r2,r2
    1eb8:	1085883a 	add	r2,r2,r2
    1ebc:	1007883a 	mov	r3,r2
    1ec0:	d0a70317 	ldw	r2,-25588(gp)
    1ec4:	1885883a 	add	r2,r3,r2
    1ec8:	10c00017 	ldw	r3,0(r2)
    1ecc:	e0bff917 	ldw	r2,-28(fp)
    1ed0:	10ff6b16 	blt	r2,r3,1c80 <readTextClassifier+0x1c0>
   * 17: alpha 1 of the filter
   * 18: alpha 2 of the filter
   ******************************************/

  /* loop over n of stages */
  for (i = 0; i < stages; i++)
    1ed4:	e0bffa17 	ldw	r2,-24(fp)
    1ed8:	10800044 	addi	r2,r2,1
    1edc:	e0bffa15 	stw	r2,-24(fp)
    1ee0:	e0fffa17 	ldw	r3,-24(fp)
    1ee4:	e0bffc17 	ldw	r2,-16(fp)
    1ee8:	18bf6316 	blt	r3,r2,1c78 <readTextClassifier+0x1b8>
	      else
		break;
	    }
	} /* end of j loop */
    } /* end of i loop */
  fclose(fp);
    1eec:	e13ff217 	ldw	r4,-56(fp)
    1ef0:	00117e80 	call	117e8 <fclose>
}
    1ef4:	e037883a 	mov	sp,fp
    1ef8:	dfc00217 	ldw	ra,8(sp)
    1efc:	df000117 	ldw	fp,4(sp)
    1f00:	dc000017 	ldw	r16,0(sp)
    1f04:	dec00304 	addi	sp,sp,12
    1f08:	f800283a 	ret

00001f0c <_Z18ScaleImage_InvokerP9myCascadefiiRSt6vectorI6MyRectSaIS2_EE>:
    } /* end of i loop */
  return 1;
}


void ScaleImage_Invoker( myCascade* _cascade, float _factor, int sum_row, int sum_col, std::vector<MyRect>& _vec)
    1f0c:	deffe604 	addi	sp,sp,-104
    1f10:	dfc01915 	stw	ra,100(sp)
    1f14:	df001815 	stw	fp,96(sp)
    1f18:	df001804 	addi	fp,sp,96
    1f1c:	e13ffc15 	stw	r4,-16(fp)
    1f20:	e17ffd15 	stw	r5,-12(fp)
    1f24:	e1bffe15 	stw	r6,-8(fp)
    1f28:	e1ffff15 	stw	r7,-4(fp)
{

  myCascade* cascade = _cascade;
    1f2c:	e0bffc17 	ldw	r2,-16(fp)
    1f30:	e0bff115 	stw	r2,-60(fp)

  float factor = _factor;
    1f34:	e0bffd17 	ldw	r2,-12(fp)
    1f38:	e0bff015 	stw	r2,-64(fp)
  MyPoint p;
  int result;
  int y1, y2, x2, x, y, step;
  std::vector<MyRect> *vec = &_vec;
    1f3c:	e0800217 	ldw	r2,8(fp)
    1f40:	e0bfe815 	stw	r2,-96(fp)

  MySize winSize0 = cascade->orig_window_size;
    1f44:	e13ff117 	ldw	r4,-60(fp)
    1f48:	20800317 	ldw	r2,12(r4)
    1f4c:	20c00417 	ldw	r3,16(r4)
    1f50:	e0bff415 	stw	r2,-48(fp)
    1f54:	e0fff515 	stw	r3,-44(fp)
  MySize winSize;

  winSize.width =  myRound(winSize0.width*factor);
    1f58:	e13ff417 	ldw	r4,-48(fp)
    1f5c:	000fa400 	call	fa40 <__floatsisf>
    1f60:	1009883a 	mov	r4,r2
    1f64:	e17ff017 	ldw	r5,-64(fp)
    1f68:	000f5fc0 	call	f5fc <__mulsf3>
    1f6c:	1009883a 	mov	r4,r2
    1f70:	00024cc0 	call	24cc <_Z7myRoundf>
    1f74:	e0bff615 	stw	r2,-40(fp)
  winSize.height =  myRound(winSize0.height*factor);
    1f78:	e13ff517 	ldw	r4,-44(fp)
    1f7c:	000fa400 	call	fa40 <__floatsisf>
    1f80:	1009883a 	mov	r4,r2
    1f84:	e17ff017 	ldw	r5,-64(fp)
    1f88:	000f5fc0 	call	f5fc <__mulsf3>
    1f8c:	1009883a 	mov	r4,r2
    1f90:	00024cc0 	call	24cc <_Z7myRoundf>
    1f94:	e0bff715 	stw	r2,-36(fp)
  y1 = 0;
    1f98:	e03fee15 	stw	zero,-72(fp)

  /********************************************
  * When filter window shifts to image boarder,
  * some margin need to be kept
  *********************************************/
  y2 = sum_row - winSize0.height;
    1f9c:	e0fff517 	ldw	r3,-44(fp)
    1fa0:	e0bffe17 	ldw	r2,-8(fp)
    1fa4:	10c5c83a 	sub	r2,r2,r3
    1fa8:	e0bfed15 	stw	r2,-76(fp)
  x2 = sum_col - winSize0.width;
    1fac:	e0fff417 	ldw	r3,-48(fp)
    1fb0:	e0bfff17 	ldw	r2,-4(fp)
    1fb4:	10c5c83a 	sub	r2,r2,r3
    1fb8:	e0bfec15 	stw	r2,-80(fp)
   * unless you want to change input image.
   *
   * The step size is set to 1 for 5kk73,
   * i.e., shift the filter window by 1 pixel.
   *******************************************/	
  step = 1;
    1fbc:	00800044 	movi	r2,1
    1fc0:	e0bfe915 	stw	r2,-92(fp)
   * Some random hints (may or may not work):
   * Split or duplicate data structure.
   * Merge functions/loops to increase locality
   * Tiling to increase computation-to-memory ratio
   *********************************************/
  for( x = 0; x <= x2; x += step )
    1fc4:	e03feb15 	stw	zero,-84(fp)
    1fc8:	00003606 	br	20a4 <_Z18ScaleImage_InvokerP9myCascadefiiRSt6vectorI6MyRectSaIS2_EE+0x198>
    for( y = y1; y <= y2; y += step )
    1fcc:	e0bfee17 	ldw	r2,-72(fp)
    1fd0:	e0bfea15 	stw	r2,-88(fp)
    1fd4:	00002c06 	br	2088 <_Z18ScaleImage_InvokerP9myCascadefiiRSt6vectorI6MyRectSaIS2_EE+0x17c>
      {
	p.x = x;
    1fd8:	e0bfeb17 	ldw	r2,-84(fp)
    1fdc:	e0bff215 	stw	r2,-56(fp)
	p.y = y;
    1fe0:	e0bfea17 	ldw	r2,-88(fp)
    1fe4:	e0bff315 	stw	r2,-52(fp)

	/*********************************************
	 * Optimization Oppotunity:
	 * The same cascade filter is used each time
	 ********************************************/
	result = runCascadeClassifier( cascade, p, 0 );
    1fe8:	e13ff117 	ldw	r4,-60(fp)
    1fec:	e17ff217 	ldw	r5,-56(fp)
    1ff0:	e1bff317 	ldw	r6,-52(fp)
    1ff4:	000f883a 	mov	r7,zero
    1ff8:	00013a40 	call	13a4 <runCascadeClassifier>
    1ffc:	e0bfef15 	stw	r2,-68(fp)
	 * the push_back operation is not possible on GPUs.
	 * The GPU may need to use a simpler data structure,
	 * e.g., an array, to store the coordinates of face,
	 * which can be later memcpy from GPU to CPU to do push_back
	 *******************************************************/
	if( result > 0 )
    2000:	e0bfef17 	ldw	r2,-68(fp)
    2004:	10800050 	cmplti	r2,r2,1
    2008:	10001b1e 	bne	r2,zero,2078 <_Z18ScaleImage_InvokerP9myCascadefiiRSt6vectorI6MyRectSaIS2_EE+0x16c>
	  {
	    MyRect r = {myRound(x*factor), myRound(y*factor), winSize.width, winSize.height};
    200c:	e03ff815 	stw	zero,-32(fp)
    2010:	e03ff915 	stw	zero,-28(fp)
    2014:	e03ffa15 	stw	zero,-24(fp)
    2018:	e03ffb15 	stw	zero,-20(fp)
    201c:	e13feb17 	ldw	r4,-84(fp)
    2020:	000fa400 	call	fa40 <__floatsisf>
    2024:	1009883a 	mov	r4,r2
    2028:	e17ff017 	ldw	r5,-64(fp)
    202c:	000f5fc0 	call	f5fc <__mulsf3>
    2030:	1009883a 	mov	r4,r2
    2034:	00024cc0 	call	24cc <_Z7myRoundf>
    2038:	e0bff815 	stw	r2,-32(fp)
    203c:	e13fea17 	ldw	r4,-88(fp)
    2040:	000fa400 	call	fa40 <__floatsisf>
    2044:	1009883a 	mov	r4,r2
    2048:	e17ff017 	ldw	r5,-64(fp)
    204c:	000f5fc0 	call	f5fc <__mulsf3>
    2050:	1009883a 	mov	r4,r2
    2054:	00024cc0 	call	24cc <_Z7myRoundf>
    2058:	e0bff915 	stw	r2,-28(fp)
    205c:	e0bff617 	ldw	r2,-40(fp)
    2060:	e0bffa15 	stw	r2,-24(fp)
    2064:	e0bff717 	ldw	r2,-36(fp)
    2068:	e0bffb15 	stw	r2,-20(fp)
	    vec->push_back(r);
    206c:	e17ff804 	addi	r5,fp,-32
    2070:	e13fe817 	ldw	r4,-96(fp)
    2074:	00039380 	call	3938 <_ZNSt6vectorI6MyRectSaIS0_EE9push_backERKS0_>
   * Split or duplicate data structure.
   * Merge functions/loops to increase locality
   * Tiling to increase computation-to-memory ratio
   *********************************************/
  for( x = 0; x <= x2; x += step )
    for( y = y1; y <= y2; y += step )
    2078:	e0bfea17 	ldw	r2,-88(fp)
    207c:	e0ffe917 	ldw	r3,-92(fp)
    2080:	10c5883a 	add	r2,r2,r3
    2084:	e0bfea15 	stw	r2,-88(fp)
    2088:	e0ffea17 	ldw	r3,-88(fp)
    208c:	e0bfed17 	ldw	r2,-76(fp)
    2090:	10ffd10e 	bge	r2,r3,1fd8 <_Z18ScaleImage_InvokerP9myCascadefiiRSt6vectorI6MyRectSaIS2_EE+0xcc>
   * Some random hints (may or may not work):
   * Split or duplicate data structure.
   * Merge functions/loops to increase locality
   * Tiling to increase computation-to-memory ratio
   *********************************************/
  for( x = 0; x <= x2; x += step )
    2094:	e0bfeb17 	ldw	r2,-84(fp)
    2098:	e0ffe917 	ldw	r3,-92(fp)
    209c:	10c5883a 	add	r2,r2,r3
    20a0:	e0bfeb15 	stw	r2,-84(fp)
    20a4:	e0ffeb17 	ldw	r3,-84(fp)
    20a8:	e0bfec17 	ldw	r2,-80(fp)
    20ac:	10ffc70e 	bge	r2,r3,1fcc <_Z18ScaleImage_InvokerP9myCascadefiiRSt6vectorI6MyRectSaIS2_EE+0xc0>
	  {
	    MyRect r = {myRound(x*factor), myRound(y*factor), winSize.width, winSize.height};
	    vec->push_back(r);
	  }
      }
}
    20b0:	e037883a 	mov	sp,fp
    20b4:	dfc00117 	ldw	ra,4(sp)
    20b8:	df000017 	ldw	fp,0(sp)
    20bc:	dec00204 	addi	sp,sp,8
    20c0:	f800283a 	ret

000020c4 <detectObjects>:
 * Function: detectObjects
 * Description: It calls all the major steps
 ******************************************************/

std::vector<MyRect> detectObjects( MyImage* _img, MySize minSize, MySize maxSize, myCascade* cascade,
				   float scaleFactor, int minNeighbors)
    20c4:	deffc204 	addi	sp,sp,-248
    20c8:	dfc03d15 	stw	ra,244(sp)
    20cc:	df003c15 	stw	fp,240(sp)
    20d0:	ddc03b15 	stw	r23,236(sp)
    20d4:	dd803a15 	stw	r22,232(sp)
    20d8:	dd403915 	stw	r21,228(sp)
    20dc:	dd003815 	stw	r20,224(sp)
    20e0:	dcc03715 	stw	r19,220(sp)
    20e4:	dc803615 	stw	r18,216(sp)
    20e8:	dc403515 	stw	r17,212(sp)
    20ec:	dc003415 	stw	r16,208(sp)
    20f0:	df003404 	addi	fp,sp,208
    20f4:	e13ffe15 	stw	r4,-8(fp)
    20f8:	e17fec15 	stw	r5,-80(fp)
    20fc:	e1bfed15 	stw	r6,-76(fp)
    2100:	e1ffee15 	stw	r7,-72(fp)
    2104:	00800074 	movhi	r2,1
    2108:	10b95b04 	addi	r2,r2,-6804
    210c:	e0bff515 	stw	r2,-44(fp)
    2110:	008000b4 	movhi	r2,2
    2114:	10b8c904 	addi	r2,r2,-7388
    2118:	e0bff615 	stw	r2,-40(fp)
    211c:	e0bff704 	addi	r2,fp,-36
    2120:	e0ffcd04 	addi	r3,fp,-204
    2124:	10c00015 	stw	r3,0(r2)
    2128:	00c00034 	movhi	r3,0
    212c:	18c90c04 	addi	r3,r3,9264
    2130:	10c00115 	stw	r3,4(r2)
    2134:	16c00215 	stw	sp,8(r2)
    2138:	e13fef04 	addi	r4,fp,-68
    213c:	00108640 	call	10864 <_Unwind_SjLj_Register>
{

  /* group overlaping windows */
  const float GROUP_EPS = 0.4f;
    2140:	008fb374 	movhi	r2,16077
    2144:	10b33344 	addi	r2,r2,-13107
    2148:	e0bfd215 	stw	r2,-184(fp)
  /* pointer to input image */
  MyImage *img = _img;
    214c:	e0bfec17 	ldw	r2,-80(fp)
    2150:	e0bfd115 	stw	r2,-188(fp)
   **********************************/
  MyImage image1Obj;
  MyIntImage sum1Obj;
  MyIntImage sqsum1Obj;
  /* pointers for the created structs */
  MyImage *img1 = &image1Obj;
    2154:	e0bfd404 	addi	r2,fp,-176
    2158:	e0bfd015 	stw	r2,-192(fp)
  MyIntImage *sum1 = &sum1Obj;
    215c:	e0bfd904 	addi	r2,fp,-156
    2160:	e0bfcf15 	stw	r2,-196(fp)
  MyIntImage *sqsum1 = &sqsum1Obj;
    2164:	e0bfdd04 	addi	r2,fp,-140
    2168:	e0bfce15 	stw	r2,-200(fp)
   *
   * Each element of the std::vector is a "MyRect" struct 
   * MyRect struct keeps the info of a rectangle (see haar.h)
   * The rectangle contains one face candidate 
   *****************************************************/
  std::vector<MyRect> allCandidates;
    216c:	e0bffe17 	ldw	r2,-8(fp)
    2170:	e0bffd15 	stw	r2,-12(fp)
    2174:	e13fd304 	addi	r4,fp,-180
    2178:	00029740 	call	2974 <_ZNSaI6MyRectEC1Ev>
    217c:	e17fd304 	addi	r5,fp,-180
    2180:	e13ffd17 	ldw	r4,-12(fp)
    2184:	0002c140 	call	2c14 <_ZNSt6vectorI6MyRectSaIS0_EEC1ERKS1_>
    2188:	e13fd304 	addi	r4,fp,-180
    218c:	00029c40 	call	29c4 <_ZNSaI6MyRectED1Ev>

  /* scaling factor */
  float factor;

  /* maxSize */
  if( maxSize.height == 0 || maxSize.width == 0 )
    2190:	e0800b17 	ldw	r2,44(fp)
    2194:	1005003a 	cmpeq	r2,r2,zero
    2198:	1000031e 	bne	r2,zero,21a8 <detectObjects+0xe4>
    219c:	e0800a17 	ldw	r2,40(fp)
    21a0:	1004c03a 	cmpne	r2,r2,zero
    21a4:	1000061e 	bne	r2,zero,21c0 <detectObjects+0xfc>
    {
      maxSize.height = img->height;
    21a8:	e0bfd117 	ldw	r2,-188(fp)
    21ac:	10800117 	ldw	r2,4(r2)
    21b0:	e0800b15 	stw	r2,44(fp)
      maxSize.width = img->width;
    21b4:	e0bfd117 	ldw	r2,-188(fp)
    21b8:	10800017 	ldw	r2,0(r2)
    21bc:	e0800a15 	stw	r2,40(fp)
    }

  /* window size of the training set */
  MySize winSize0 = cascade->orig_window_size;
    21c0:	e1000c17 	ldw	r4,48(fp)
    21c4:	20800317 	ldw	r2,12(r4)
    21c8:	20c00417 	ldw	r3,16(r4)
    21cc:	e0bfe415 	stw	r2,-112(fp)
    21d0:	e0ffe515 	stw	r3,-108(fp)

  /* malloc for img1: unsigned char */
  createImage(img->width, img->height, img1);
    21d4:	e0bfd117 	ldw	r2,-188(fp)
    21d8:	11000017 	ldw	r4,0(r2)
    21dc:	e0bfd117 	ldw	r2,-188(fp)
    21e0:	11400117 	ldw	r5,4(r2)
    21e4:	00800044 	movi	r2,1
    21e8:	e0bff015 	stw	r2,-64(fp)
    21ec:	e1bfd017 	ldw	r6,-192(fp)
    21f0:	000089c0 	call	89c <createImage>
  /* malloc for sum1: unsigned char */
  createSumImage(img->width, img->height, sum1);
    21f4:	e0bfd117 	ldw	r2,-188(fp)
    21f8:	11000017 	ldw	r4,0(r2)
    21fc:	e0bfd117 	ldw	r2,-188(fp)
    2200:	11400117 	ldw	r5,4(r2)
    2204:	e1bfcf17 	ldw	r6,-196(fp)
    2208:	00009100 	call	910 <createSumImage>
  /* malloc for sqsum1: unsigned char */
  createSumImage(img->width, img->height, sqsum1);
    220c:	e0bfd117 	ldw	r2,-188(fp)
    2210:	11000017 	ldw	r4,0(r2)
    2214:	e0bfd117 	ldw	r2,-188(fp)
    2218:	11400117 	ldw	r5,4(r2)
    221c:	e1bfce17 	ldw	r6,-200(fp)
    2220:	00009100 	call	910 <createSumImage>

  /* initial scaling factor */
  factor = 1;
    2224:	008fe034 	movhi	r2,16256
    2228:	e0bfcd15 	stw	r2,-204(fp)

  /* iterate over the image pyramid */
  for( factor = 1; ; factor *= scaleFactor )
    222c:	008fe034 	movhi	r2,16256
    2230:	e0bfcd15 	stw	r2,-204(fp)
    {
      /* iteration counter */
      iter_counter++;
    2234:	d0a70217 	ldw	r2,-25592(gp)
    2238:	10800044 	addi	r2,r2,1
    223c:	d0a70215 	stw	r2,-25592(gp)

      /* size of the image scaled up */
      MySize winSize = { myRound(winSize0.width*factor), myRound(winSize0.height*factor) };
    2240:	e03fe615 	stw	zero,-104(fp)
    2244:	e03fe715 	stw	zero,-100(fp)
    2248:	e13fe417 	ldw	r4,-112(fp)
    224c:	000fa400 	call	fa40 <__floatsisf>
    2250:	1009883a 	mov	r4,r2
    2254:	e17fcd17 	ldw	r5,-204(fp)
    2258:	000f5fc0 	call	f5fc <__mulsf3>
    225c:	1009883a 	mov	r4,r2
    2260:	00024cc0 	call	24cc <_Z7myRoundf>
    2264:	e0bfe615 	stw	r2,-104(fp)
    2268:	e13fe517 	ldw	r4,-108(fp)
    226c:	000fa400 	call	fa40 <__floatsisf>
    2270:	1009883a 	mov	r4,r2
    2274:	e17fcd17 	ldw	r5,-204(fp)
    2278:	000f5fc0 	call	f5fc <__mulsf3>
    227c:	1009883a 	mov	r4,r2
    2280:	00024cc0 	call	24cc <_Z7myRoundf>
    2284:	e0bfe715 	stw	r2,-100(fp)

      /* size of the image scaled down (from bigger to smaller) */
      MySize sz = { ( img->width/factor ), ( img->height/factor ) };
    2288:	e03fe815 	stw	zero,-96(fp)
    228c:	e03fe915 	stw	zero,-92(fp)
    2290:	e0bfd117 	ldw	r2,-188(fp)
    2294:	11000017 	ldw	r4,0(r2)
    2298:	000fa400 	call	fa40 <__floatsisf>
    229c:	1009883a 	mov	r4,r2
    22a0:	e17fcd17 	ldw	r5,-204(fp)
    22a4:	000f7dc0 	call	f7dc <__divsf3>
    22a8:	1009883a 	mov	r4,r2
    22ac:	000fad80 	call	fad8 <__fixsfsi>
    22b0:	e0bfe815 	stw	r2,-96(fp)
    22b4:	e0bfd117 	ldw	r2,-188(fp)
    22b8:	11000117 	ldw	r4,4(r2)
    22bc:	000fa400 	call	fa40 <__floatsisf>
    22c0:	1009883a 	mov	r4,r2
    22c4:	e17fcd17 	ldw	r5,-204(fp)
    22c8:	000f7dc0 	call	f7dc <__divsf3>
    22cc:	1009883a 	mov	r4,r2
    22d0:	000fad80 	call	fad8 <__fixsfsi>
    22d4:	e0bfe915 	stw	r2,-92(fp)

      /* difference between sizes of the scaled image and the original detection window */
      MySize sz1 = { sz.width - winSize0.width, sz.height - winSize0.height };
    22d8:	e03fea15 	stw	zero,-88(fp)
    22dc:	e03feb15 	stw	zero,-84(fp)
    22e0:	e0ffe817 	ldw	r3,-96(fp)
    22e4:	e0bfe417 	ldw	r2,-112(fp)
    22e8:	1885c83a 	sub	r2,r3,r2
    22ec:	e0bfea15 	stw	r2,-88(fp)
    22f0:	e0ffe917 	ldw	r3,-92(fp)
    22f4:	e0bfe517 	ldw	r2,-108(fp)
    22f8:	1885c83a 	sub	r2,r3,r2
    22fc:	e0bfeb15 	stw	r2,-84(fp)

      /* if the actual scaled image is smaller than the original detection window, break */
      if( sz1.width < 0 || sz1.height < 0 )
    2300:	e0bfea17 	ldw	r2,-88(fp)
    2304:	1004803a 	cmplt	r2,r2,zero
    2308:	1000031e 	bne	r2,zero,2318 <detectObjects+0x254>
    230c:	e0bfeb17 	ldw	r2,-84(fp)
    2310:	1004403a 	cmpge	r2,r2,zero
    2314:	1000041e 	bne	r2,zero,2328 <detectObjects+0x264>
       ***************************************************/
      ScaleImage_Invoker(cascade, factor, sum1->height, sum1->width,
			 allCandidates);
    } /* end of the factor loop, finish all scales in pyramid*/

  if( minNeighbors != 0)
    2318:	e0800e17 	ldw	r2,56(fp)
    231c:	1004c03a 	cmpne	r2,r2,zero
    2320:	1000331e 	bne	r2,zero,23f0 <detectObjects+0x32c>
    2324:	00003906 	br	240c <detectObjects+0x348>
      /* if the actual scaled image is smaller than the original detection window, break */
      if( sz1.width < 0 || sz1.height < 0 )
	break;

      /* if a minSize different from the original detection window is specified, continue to the next scaling */
      if( winSize.width < minSize.width || winSize.height < minSize.height )
    2328:	e0ffe617 	ldw	r3,-104(fp)
    232c:	e0bfed17 	ldw	r2,-76(fp)
    2330:	18802a16 	blt	r3,r2,23dc <detectObjects+0x318>
    2334:	e0ffe717 	ldw	r3,-100(fp)
    2338:	e0bfee17 	ldw	r2,-72(fp)
    233c:	1880010e 	bge	r3,r2,2344 <detectObjects+0x280>
	continue;
    2340:	00002606 	br	23dc <detectObjects+0x318>
       * img1: normal image (unsigned char)
       * sum1: integral image (int)
       * sqsum1: squared integral image (int)
       * see image.c for details
       ************************************/
      setImage(sz.width, sz.height, img1);
    2344:	e13fe817 	ldw	r4,-96(fp)
    2348:	e17fe917 	ldw	r5,-92(fp)
    234c:	00800044 	movi	r2,1
    2350:	e0bff015 	stw	r2,-64(fp)
    2354:	e1bfd017 	ldw	r6,-192(fp)
    2358:	0000a540 	call	a54 <setImage>
      setSumImage(sz.width, sz.height, sum1);
    235c:	e13fe817 	ldw	r4,-96(fp)
    2360:	e17fe917 	ldw	r5,-92(fp)
    2364:	e1bfcf17 	ldw	r6,-196(fp)
    2368:	0000a940 	call	a94 <setSumImage>
      setSumImage(sz.width, sz.height, sqsum1);
    236c:	e13fe817 	ldw	r4,-96(fp)
    2370:	e17fe917 	ldw	r5,-92(fp)
    2374:	e1bfce17 	ldw	r6,-200(fp)
    2378:	0000a940 	call	a94 <setSumImage>
      /***************************************
       * Compute-intensive step:
       * building image pyramid by downsampling
       * downsampling using nearest neighbor
       **************************************/
      nearestNeighbor(img, img1);
    237c:	e13fd117 	ldw	r4,-188(fp)
    2380:	e17fd017 	ldw	r5,-192(fp)
    2384:	00018e00 	call	18e0 <_Z15nearestNeighborP7MyImageS0_>
      /***************************************************
       * Compute-intensive step:
       * At each scale of the image pyramid,
       * compute a new integral and squared integral image
       ***************************************************/
      integralImages(img1, sum1, sqsum1);
    2388:	e13fd017 	ldw	r4,-192(fp)
    238c:	e17fcf17 	ldw	r5,-196(fp)
    2390:	e1bfce17 	ldw	r6,-200(fp)
    2394:	00016f00 	call	16f0 <_Z14integralImagesP7MyImageP10MyIntImageS2_>
       * 
       * This function loads the four corners,
       * but does not do compuation based on four coners.
       * The computation is done next in ScaleImage_Invoker
       *************************************************/
      setImageForCascadeClassifier( cascade, sum1, sqsum1);
    2398:	e1000c17 	ldw	r4,48(fp)
    239c:	e17fcf17 	ldw	r5,-196(fp)
    23a0:	e1bfce17 	ldw	r6,-200(fp)
    23a4:	0000b9c0 	call	b9c <setImageForCascadeClassifier>

      /* print out for each scale of the image pyramid */
      printf("detecting faces, iter := %d\n", iter_counter);
    23a8:	d1670217 	ldw	r5,-25592(gp)
    23ac:	010000b4 	movhi	r4,2
    23b0:	2139ae04 	addi	r4,r4,-6472
    23b4:	0013cc80 	call	13cc8 <printf>
       * The main computations are invoked by this function.
       * Optimization oppurtunity:
       * the same cascade filter is invoked each time
       ***************************************************/
      ScaleImage_Invoker(cascade, factor, sum1->height, sum1->width,
			 allCandidates);
    23b8:	e0bfcf17 	ldw	r2,-196(fp)
    23bc:	11800117 	ldw	r6,4(r2)
    23c0:	e0bfcf17 	ldw	r2,-196(fp)
    23c4:	11c00017 	ldw	r7,0(r2)
    23c8:	e0bffe17 	ldw	r2,-8(fp)
    23cc:	d8800015 	stw	r2,0(sp)
    23d0:	e1000c17 	ldw	r4,48(fp)
    23d4:	e17fcd17 	ldw	r5,-204(fp)
    23d8:	0001f0c0 	call	1f0c <_Z18ScaleImage_InvokerP9myCascadefiiRSt6vectorI6MyRectSaIS2_EE>

  /* initial scaling factor */
  factor = 1;

  /* iterate over the image pyramid */
  for( factor = 1; ; factor *= scaleFactor )
    23dc:	e13fcd17 	ldw	r4,-204(fp)
    23e0:	e1400d17 	ldw	r5,52(fp)
    23e4:	000f5fc0 	call	f5fc <__mulsf3>
    23e8:	e0bfcd15 	stw	r2,-204(fp)
    23ec:	003f9106 	br	2234 <detectObjects+0x170>
			 allCandidates);
    } /* end of the factor loop, finish all scales in pyramid*/

  if( minNeighbors != 0)
    {
      groupRectangles(allCandidates, minNeighbors, GROUP_EPS);
    23f0:	e13ffe17 	ldw	r4,-8(fp)
    23f4:	00800044 	movi	r2,1
    23f8:	e0bff015 	stw	r2,-64(fp)
    23fc:	e1400e17 	ldw	r5,56(fp)
    2400:	018fb374 	movhi	r6,16077
    2404:	31b33344 	addi	r6,r6,-13107
    2408:	00050dc0 	call	50dc <groupRectangles>
    }

  freeImage(img1);
    240c:	00800044 	movi	r2,1
    2410:	e0bff015 	stw	r2,-64(fp)
    2414:	e13fd017 	ldw	r4,-192(fp)
    2418:	000098c0 	call	98c <freeImage>
  freeSumImage(sum1);
    241c:	e13fcf17 	ldw	r4,-196(fp)
    2420:	00009f00 	call	9f0 <freeSumImage>
  freeSumImage(sqsum1);
    2424:	e13fce17 	ldw	r4,-200(fp)
    2428:	00009f00 	call	9f0 <freeSumImage>
    242c:	00000d06 	br	2464 <detectObjects+0x3a0>
    2430:	e7003304 	addi	fp,fp,204
    2434:	e0fff117 	ldw	r3,-60(fp)
    2438:	e0ffff15 	stw	r3,-4(fp)
    243c:	e0bfff17 	ldw	r2,-4(fp)
    2440:	e0bffc15 	stw	r2,-16(fp)
  return allCandidates;
    2444:	e13ffe17 	ldw	r4,-8(fp)
    2448:	0003a200 	call	3a20 <_ZNSt6vectorI6MyRectSaIS0_EED1Ev>
    244c:	e0fffc17 	ldw	r3,-16(fp)
    2450:	e0ffff15 	stw	r3,-4(fp)
    2454:	00bfffc4 	movi	r2,-1
    2458:	e0bff015 	stw	r2,-64(fp)
    245c:	e13fff17 	ldw	r4,-4(fp)
    2460:	0010b300 	call	10b30 <_Unwind_SjLj_Resume>
    2464:	e13fef04 	addi	r4,fp,-68
    2468:	00108740 	call	10874 <_Unwind_SjLj_Unregister>

}
    246c:	e0bffe17 	ldw	r2,-8(fp)
    2470:	e037883a 	mov	sp,fp
    2474:	dfc00917 	ldw	ra,36(sp)
    2478:	df000817 	ldw	fp,32(sp)
    247c:	ddc00717 	ldw	r23,28(sp)
    2480:	dd800617 	ldw	r22,24(sp)
    2484:	dd400517 	ldw	r21,20(sp)
    2488:	dd000417 	ldw	r20,16(sp)
    248c:	dcc00317 	ldw	r19,12(sp)
    2490:	dc800217 	ldw	r18,8(sp)
    2494:	dc400117 	ldw	r17,4(sp)
    2498:	dc000017 	ldw	r16,0(sp)
    249c:	dec00a04 	addi	sp,sp,40
    24a0:	f800283a 	ret

000024a4 <_ZnwmPv>:
void* operator new[](std::size_t, const std::nothrow_t&) throw();
void operator delete(void*, const std::nothrow_t&) throw();
void operator delete[](void*, const std::nothrow_t&) throw();

// Default placement versions of operator new.
inline void* operator new(std::size_t, void* __p) throw() { return __p; }
    24a4:	defffd04 	addi	sp,sp,-12
    24a8:	df000215 	stw	fp,8(sp)
    24ac:	df000204 	addi	fp,sp,8
    24b0:	e13ffe15 	stw	r4,-8(fp)
    24b4:	e17fff15 	stw	r5,-4(fp)
    24b8:	e0bfff17 	ldw	r2,-4(fp)
    24bc:	e037883a 	mov	sp,fp
    24c0:	df000017 	ldw	fp,0(sp)
    24c4:	dec00104 	addi	sp,sp,4
    24c8:	f800283a 	ret

000024cc <_Z7myRoundf>:
    return a;
  else
    return b;
}

inline  int  myRound( float value )
    24cc:	defff904 	addi	sp,sp,-28
    24d0:	dfc00615 	stw	ra,24(sp)
    24d4:	df000515 	stw	fp,20(sp)
    24d8:	df000504 	addi	fp,sp,20
    24dc:	e13ffb15 	stw	r4,-20(fp)
{
  return (int)(value + (value >= 0 ? 0.5 : -0.5));
    24e0:	e13ffb17 	ldw	r4,-20(fp)
    24e4:	000fb6c0 	call	fb6c <__extendsfdf2>
    24e8:	e0bffe15 	stw	r2,-8(fp)
    24ec:	e0ffff15 	stw	r3,-4(fp)
    24f0:	e13ffb17 	ldw	r4,-20(fp)
    24f4:	000b883a 	mov	r5,zero
    24f8:	000f9500 	call	f950 <__gesf2>
    24fc:	1004403a 	cmpge	r2,r2,zero
    2500:	1000011e 	bne	r2,zero,2508 <_Z7myRoundf+0x3c>
    2504:	00000506 	br	251c <_Z7myRoundf+0x50>
    2508:	0005883a 	mov	r2,zero
    250c:	e0bffc15 	stw	r2,-16(fp)
    2510:	008ff834 	movhi	r2,16352
    2514:	e0bffd15 	stw	r2,-12(fp)
    2518:	00000406 	br	252c <_Z7myRoundf+0x60>
    251c:	0005883a 	mov	r2,zero
    2520:	e0bffc15 	stw	r2,-16(fp)
    2524:	00aff834 	movhi	r2,49120
    2528:	e0bffd15 	stw	r2,-12(fp)
    252c:	e13ffe17 	ldw	r4,-8(fp)
    2530:	e17fff17 	ldw	r5,-4(fp)
    2534:	e1bffc17 	ldw	r6,-16(fp)
    2538:	e1fffd17 	ldw	r7,-12(fp)
    253c:	00100500 	call	10050 <__adddf3>
    2540:	1009883a 	mov	r4,r2
    2544:	180b883a 	mov	r5,r3
    2548:	2005883a 	mov	r2,r4
    254c:	2807883a 	mov	r3,r5
    2550:	1009883a 	mov	r4,r2
    2554:	180b883a 	mov	r5,r3
    2558:	00106080 	call	10608 <__fixdfsi>
}
    255c:	e037883a 	mov	sp,fp
    2560:	dfc00117 	ldw	ra,4(sp)
    2564:	df000017 	ldw	fp,0(sp)
    2568:	dec00204 	addi	sp,sp,8
    256c:	f800283a 	ret

00002570 <_Z18evalWeakClassifieriiiii>:
 * evalWeakClassifier:
 * the actual computation of a haar filter.
 * More info:
 * http://en.wikipedia.org/wiki/Haar-like_features
 ***************************************************/
inline int evalWeakClassifier(int variance_norm_factor, int p_offset, int tree_index, int w_index, int r_index )
    2570:	defff804 	addi	sp,sp,-32
    2574:	df000715 	stw	fp,28(sp)
    2578:	df000704 	addi	fp,sp,28
    257c:	e13ffb15 	stw	r4,-20(fp)
    2580:	e17ffc15 	stw	r5,-16(fp)
    2584:	e1bffd15 	stw	r6,-12(fp)
    2588:	e1fffe15 	stw	r7,-8(fp)
{

  /* the node threshold is multiplied by the standard deviation of the image */
  int t = tree_thresh_array[tree_index] * variance_norm_factor;
    258c:	e0bffd17 	ldw	r2,-12(fp)
    2590:	1085883a 	add	r2,r2,r2
    2594:	1085883a 	add	r2,r2,r2
    2598:	1007883a 	mov	r3,r2
    259c:	d0a70717 	ldw	r2,-25572(gp)
    25a0:	1885883a 	add	r2,r3,r2
    25a4:	10c00017 	ldw	r3,0(r2)
    25a8:	e0bffb17 	ldw	r2,-20(fp)
    25ac:	1885383a 	mul	r2,r3,r2
    25b0:	e0bffa15 	stw	r2,-24(fp)

  int sum = (*(scaled_rectangles_array[r_index] + p_offset)
	     - *(scaled_rectangles_array[r_index + 1] + p_offset)
	     - *(scaled_rectangles_array[r_index + 2] + p_offset)
	     + *(scaled_rectangles_array[r_index + 3] + p_offset))
    * weights_array[w_index];
    25b4:	e0800117 	ldw	r2,4(fp)
    25b8:	1085883a 	add	r2,r2,r2
    25bc:	1085883a 	add	r2,r2,r2
    25c0:	1007883a 	mov	r3,r2
    25c4:	d0a70517 	ldw	r2,-25580(gp)
    25c8:	1885883a 	add	r2,r3,r2
    25cc:	10c00017 	ldw	r3,0(r2)
    25d0:	e0bffc17 	ldw	r2,-16(fp)
    25d4:	1085883a 	add	r2,r2,r2
    25d8:	1085883a 	add	r2,r2,r2
    25dc:	1885883a 	add	r2,r3,r2
    25e0:	11000017 	ldw	r4,0(r2)
    25e4:	e0800117 	ldw	r2,4(fp)
    25e8:	1085883a 	add	r2,r2,r2
    25ec:	1085883a 	add	r2,r2,r2
    25f0:	1007883a 	mov	r3,r2
    25f4:	d0a70517 	ldw	r2,-25580(gp)
    25f8:	1885883a 	add	r2,r3,r2
    25fc:	10800104 	addi	r2,r2,4
    2600:	10c00017 	ldw	r3,0(r2)
    2604:	e0bffc17 	ldw	r2,-16(fp)
    2608:	1085883a 	add	r2,r2,r2
    260c:	1085883a 	add	r2,r2,r2
    2610:	1885883a 	add	r2,r3,r2
    2614:	10800017 	ldw	r2,0(r2)
    2618:	2089c83a 	sub	r4,r4,r2
    261c:	e0800117 	ldw	r2,4(fp)
    2620:	1085883a 	add	r2,r2,r2
    2624:	1085883a 	add	r2,r2,r2
    2628:	1007883a 	mov	r3,r2
    262c:	d0a70517 	ldw	r2,-25580(gp)
    2630:	1885883a 	add	r2,r3,r2
    2634:	10800204 	addi	r2,r2,8
    2638:	10c00017 	ldw	r3,0(r2)
    263c:	e0bffc17 	ldw	r2,-16(fp)
    2640:	1085883a 	add	r2,r2,r2
    2644:	1085883a 	add	r2,r2,r2
    2648:	1885883a 	add	r2,r3,r2
    264c:	10800017 	ldw	r2,0(r2)
    2650:	2089c83a 	sub	r4,r4,r2
    2654:	e0800117 	ldw	r2,4(fp)
    2658:	1085883a 	add	r2,r2,r2
    265c:	1085883a 	add	r2,r2,r2
    2660:	1007883a 	mov	r3,r2
    2664:	d0a70517 	ldw	r2,-25580(gp)
    2668:	1885883a 	add	r2,r3,r2
    266c:	10800304 	addi	r2,r2,12
    2670:	10c00017 	ldw	r3,0(r2)
    2674:	e0bffc17 	ldw	r2,-16(fp)
    2678:	1085883a 	add	r2,r2,r2
    267c:	1085883a 	add	r2,r2,r2
    2680:	1885883a 	add	r2,r3,r2
    2684:	10800017 	ldw	r2,0(r2)
    2688:	2089883a 	add	r4,r4,r2
    268c:	e0bffe17 	ldw	r2,-8(fp)
    2690:	1085883a 	add	r2,r2,r2
    2694:	1085883a 	add	r2,r2,r2
    2698:	1007883a 	mov	r3,r2
    269c:	d0a70617 	ldw	r2,-25576(gp)
    26a0:	1885883a 	add	r2,r3,r2
    26a4:	10800017 	ldw	r2,0(r2)
    26a8:	2085383a 	mul	r2,r4,r2
    26ac:	e0bff915 	stw	r2,-28(fp)

  sum += (*(scaled_rectangles_array[r_index+4] + p_offset)
	  - *(scaled_rectangles_array[r_index + 5] + p_offset)
	  - *(scaled_rectangles_array[r_index + 6] + p_offset)
	  + *(scaled_rectangles_array[r_index + 7] + p_offset))
    * weights_array[w_index + 1];
    26b0:	e0800117 	ldw	r2,4(fp)
    26b4:	1085883a 	add	r2,r2,r2
    26b8:	1085883a 	add	r2,r2,r2
    26bc:	1007883a 	mov	r3,r2
    26c0:	d0a70517 	ldw	r2,-25580(gp)
    26c4:	1885883a 	add	r2,r3,r2
    26c8:	10800404 	addi	r2,r2,16
    26cc:	10c00017 	ldw	r3,0(r2)
    26d0:	e0bffc17 	ldw	r2,-16(fp)
    26d4:	1085883a 	add	r2,r2,r2
    26d8:	1085883a 	add	r2,r2,r2
    26dc:	1885883a 	add	r2,r3,r2
    26e0:	11000017 	ldw	r4,0(r2)
    26e4:	e0800117 	ldw	r2,4(fp)
    26e8:	1085883a 	add	r2,r2,r2
    26ec:	1085883a 	add	r2,r2,r2
    26f0:	1007883a 	mov	r3,r2
    26f4:	d0a70517 	ldw	r2,-25580(gp)
    26f8:	1885883a 	add	r2,r3,r2
    26fc:	10800504 	addi	r2,r2,20
    2700:	10c00017 	ldw	r3,0(r2)
    2704:	e0bffc17 	ldw	r2,-16(fp)
    2708:	1085883a 	add	r2,r2,r2
    270c:	1085883a 	add	r2,r2,r2
    2710:	1885883a 	add	r2,r3,r2
    2714:	10800017 	ldw	r2,0(r2)
    2718:	2089c83a 	sub	r4,r4,r2
    271c:	e0800117 	ldw	r2,4(fp)
    2720:	1085883a 	add	r2,r2,r2
    2724:	1085883a 	add	r2,r2,r2
    2728:	1007883a 	mov	r3,r2
    272c:	d0a70517 	ldw	r2,-25580(gp)
    2730:	1885883a 	add	r2,r3,r2
    2734:	10800604 	addi	r2,r2,24
    2738:	10c00017 	ldw	r3,0(r2)
    273c:	e0bffc17 	ldw	r2,-16(fp)
    2740:	1085883a 	add	r2,r2,r2
    2744:	1085883a 	add	r2,r2,r2
    2748:	1885883a 	add	r2,r3,r2
    274c:	10800017 	ldw	r2,0(r2)
    2750:	2089c83a 	sub	r4,r4,r2
    2754:	e0800117 	ldw	r2,4(fp)
    2758:	1085883a 	add	r2,r2,r2
    275c:	1085883a 	add	r2,r2,r2
    2760:	1007883a 	mov	r3,r2
    2764:	d0a70517 	ldw	r2,-25580(gp)
    2768:	1885883a 	add	r2,r3,r2
    276c:	10800704 	addi	r2,r2,28
    2770:	10c00017 	ldw	r3,0(r2)
    2774:	e0bffc17 	ldw	r2,-16(fp)
    2778:	1085883a 	add	r2,r2,r2
    277c:	1085883a 	add	r2,r2,r2
    2780:	1885883a 	add	r2,r3,r2
    2784:	10800017 	ldw	r2,0(r2)
    2788:	2089883a 	add	r4,r4,r2
    278c:	e0bffe17 	ldw	r2,-8(fp)
    2790:	1085883a 	add	r2,r2,r2
    2794:	1085883a 	add	r2,r2,r2
    2798:	1007883a 	mov	r3,r2
    279c:	d0a70617 	ldw	r2,-25576(gp)
    27a0:	1885883a 	add	r2,r3,r2
    27a4:	10800104 	addi	r2,r2,4
    27a8:	10800017 	ldw	r2,0(r2)
    27ac:	2087383a 	mul	r3,r4,r2
    27b0:	e0bff917 	ldw	r2,-28(fp)
    27b4:	10c5883a 	add	r2,r2,r3
    27b8:	e0bff915 	stw	r2,-28(fp)

  if ((scaled_rectangles_array[r_index+8] != NULL))
    27bc:	e0800117 	ldw	r2,4(fp)
    27c0:	1085883a 	add	r2,r2,r2
    27c4:	1085883a 	add	r2,r2,r2
    27c8:	1007883a 	mov	r3,r2
    27cc:	d0a70517 	ldw	r2,-25580(gp)
    27d0:	1885883a 	add	r2,r3,r2
    27d4:	10800804 	addi	r2,r2,32
    27d8:	10800017 	ldw	r2,0(r2)
    27dc:	1005003a 	cmpeq	r2,r2,zero
    27e0:	1000431e 	bne	r2,zero,28f0 <_Z18evalWeakClassifieriiiii+0x380>
    sum += (*(scaled_rectangles_array[r_index+8] + p_offset)
	    - *(scaled_rectangles_array[r_index + 9] + p_offset)
	    - *(scaled_rectangles_array[r_index + 10] + p_offset)
	    + *(scaled_rectangles_array[r_index + 11] + p_offset))
      * weights_array[w_index + 2];
    27e4:	e0800117 	ldw	r2,4(fp)
    27e8:	1085883a 	add	r2,r2,r2
    27ec:	1085883a 	add	r2,r2,r2
    27f0:	1007883a 	mov	r3,r2
    27f4:	d0a70517 	ldw	r2,-25580(gp)
    27f8:	1885883a 	add	r2,r3,r2
    27fc:	10800804 	addi	r2,r2,32
    2800:	10c00017 	ldw	r3,0(r2)
    2804:	e0bffc17 	ldw	r2,-16(fp)
    2808:	1085883a 	add	r2,r2,r2
    280c:	1085883a 	add	r2,r2,r2
    2810:	1885883a 	add	r2,r3,r2
    2814:	11000017 	ldw	r4,0(r2)
    2818:	e0800117 	ldw	r2,4(fp)
    281c:	1085883a 	add	r2,r2,r2
    2820:	1085883a 	add	r2,r2,r2
    2824:	1007883a 	mov	r3,r2
    2828:	d0a70517 	ldw	r2,-25580(gp)
    282c:	1885883a 	add	r2,r3,r2
    2830:	10800904 	addi	r2,r2,36
    2834:	10c00017 	ldw	r3,0(r2)
    2838:	e0bffc17 	ldw	r2,-16(fp)
    283c:	1085883a 	add	r2,r2,r2
    2840:	1085883a 	add	r2,r2,r2
    2844:	1885883a 	add	r2,r3,r2
    2848:	10800017 	ldw	r2,0(r2)
    284c:	2089c83a 	sub	r4,r4,r2
    2850:	e0800117 	ldw	r2,4(fp)
    2854:	1085883a 	add	r2,r2,r2
    2858:	1085883a 	add	r2,r2,r2
    285c:	1007883a 	mov	r3,r2
    2860:	d0a70517 	ldw	r2,-25580(gp)
    2864:	1885883a 	add	r2,r3,r2
    2868:	10800a04 	addi	r2,r2,40
    286c:	10c00017 	ldw	r3,0(r2)
    2870:	e0bffc17 	ldw	r2,-16(fp)
    2874:	1085883a 	add	r2,r2,r2
    2878:	1085883a 	add	r2,r2,r2
    287c:	1885883a 	add	r2,r3,r2
    2880:	10800017 	ldw	r2,0(r2)
    2884:	2089c83a 	sub	r4,r4,r2
    2888:	e0800117 	ldw	r2,4(fp)
    288c:	1085883a 	add	r2,r2,r2
    2890:	1085883a 	add	r2,r2,r2
    2894:	1007883a 	mov	r3,r2
    2898:	d0a70517 	ldw	r2,-25580(gp)
    289c:	1885883a 	add	r2,r3,r2
    28a0:	10800b04 	addi	r2,r2,44
    28a4:	10c00017 	ldw	r3,0(r2)
    28a8:	e0bffc17 	ldw	r2,-16(fp)
    28ac:	1085883a 	add	r2,r2,r2
    28b0:	1085883a 	add	r2,r2,r2
    28b4:	1885883a 	add	r2,r3,r2
    28b8:	10800017 	ldw	r2,0(r2)
    28bc:	2089883a 	add	r4,r4,r2
    28c0:	e0bffe17 	ldw	r2,-8(fp)
    28c4:	1085883a 	add	r2,r2,r2
    28c8:	1085883a 	add	r2,r2,r2
    28cc:	1007883a 	mov	r3,r2
    28d0:	d0a70617 	ldw	r2,-25576(gp)
    28d4:	1885883a 	add	r2,r3,r2
    28d8:	10800204 	addi	r2,r2,8
    28dc:	10800017 	ldw	r2,0(r2)
    28e0:	2087383a 	mul	r3,r4,r2
    28e4:	e0bff917 	ldw	r2,-28(fp)
    28e8:	10c5883a 	add	r2,r2,r3
    28ec:	e0bff915 	stw	r2,-28(fp)

  if(sum >= t)
    28f0:	e0fff917 	ldw	r3,-28(fp)
    28f4:	e0bffa17 	ldw	r2,-24(fp)
    28f8:	18800916 	blt	r3,r2,2920 <_Z18evalWeakClassifieriiiii+0x3b0>
    return alpha2_array[tree_index];
    28fc:	e0bffd17 	ldw	r2,-12(fp)
    2900:	1085883a 	add	r2,r2,r2
    2904:	1085883a 	add	r2,r2,r2
    2908:	1007883a 	mov	r3,r2
    290c:	d0a70917 	ldw	r2,-25564(gp)
    2910:	1885883a 	add	r2,r3,r2
    2914:	10800017 	ldw	r2,0(r2)
    2918:	e0bfff15 	stw	r2,-4(fp)
    291c:	00000806 	br	2940 <_Z18evalWeakClassifieriiiii+0x3d0>
  else
    return alpha1_array[tree_index];
    2920:	e0bffd17 	ldw	r2,-12(fp)
    2924:	1085883a 	add	r2,r2,r2
    2928:	1085883a 	add	r2,r2,r2
    292c:	1007883a 	mov	r3,r2
    2930:	d0a70817 	ldw	r2,-25568(gp)
    2934:	1885883a 	add	r2,r3,r2
    2938:	10800017 	ldw	r2,0(r2)
    293c:	e0bfff15 	stw	r2,-4(fp)
    2940:	e0bfff17 	ldw	r2,-4(fp)

}
    2944:	e037883a 	mov	sp,fp
    2948:	df000017 	ldw	fp,0(sp)
    294c:	dec00104 	addi	sp,sp,4
    2950:	f800283a 	ret

00002954 <_ZN9__gnu_cxx13new_allocatorI6MyRectEC2Ev>:

      template<typename _Tp1>
        struct rebind
        { typedef new_allocator<_Tp1> other; };

      new_allocator() throw() { }
    2954:	defffe04 	addi	sp,sp,-8
    2958:	df000115 	stw	fp,4(sp)
    295c:	df000104 	addi	fp,sp,4
    2960:	e13fff15 	stw	r4,-4(fp)
    2964:	e037883a 	mov	sp,fp
    2968:	df000017 	ldw	fp,0(sp)
    296c:	dec00104 	addi	sp,sp,4
    2970:	f800283a 	ret

00002974 <_ZNSaI6MyRectEC1Ev>:

      template<typename _Tp1>
        struct rebind
        { typedef allocator<_Tp1> other; };

      allocator() throw() { }
    2974:	defffd04 	addi	sp,sp,-12
    2978:	dfc00215 	stw	ra,8(sp)
    297c:	df000115 	stw	fp,4(sp)
    2980:	df000104 	addi	fp,sp,4
    2984:	e13fff15 	stw	r4,-4(fp)
    2988:	e13fff17 	ldw	r4,-4(fp)
    298c:	00029540 	call	2954 <_ZN9__gnu_cxx13new_allocatorI6MyRectEC2Ev>
    2990:	e037883a 	mov	sp,fp
    2994:	dfc00117 	ldw	ra,4(sp)
    2998:	df000017 	ldw	fp,0(sp)
    299c:	dec00204 	addi	sp,sp,8
    29a0:	f800283a 	ret

000029a4 <_ZN9__gnu_cxx13new_allocatorI6MyRectED2Ev>:
      new_allocator(const new_allocator&) throw() { }

      template<typename _Tp1>
        new_allocator(const new_allocator<_Tp1>&) throw() { }

      ~new_allocator() throw() { }
    29a4:	defffe04 	addi	sp,sp,-8
    29a8:	df000115 	stw	fp,4(sp)
    29ac:	df000104 	addi	fp,sp,4
    29b0:	e13fff15 	stw	r4,-4(fp)
    29b4:	e037883a 	mov	sp,fp
    29b8:	df000017 	ldw	fp,0(sp)
    29bc:	dec00104 	addi	sp,sp,4
    29c0:	f800283a 	ret

000029c4 <_ZNSaI6MyRectED1Ev>:
      : __glibcxx_base_allocator<_Tp>(__a) { }

      template<typename _Tp1>
        allocator(const allocator<_Tp1>&) throw() { }

      ~allocator() throw() { }
    29c4:	defffd04 	addi	sp,sp,-12
    29c8:	dfc00215 	stw	ra,8(sp)
    29cc:	df000115 	stw	fp,4(sp)
    29d0:	df000104 	addi	fp,sp,4
    29d4:	e13fff15 	stw	r4,-4(fp)
    29d8:	e13fff17 	ldw	r4,-4(fp)
    29dc:	00029a40 	call	29a4 <_ZN9__gnu_cxx13new_allocatorI6MyRectED2Ev>
    29e0:	e037883a 	mov	sp,fp
    29e4:	dfc00117 	ldw	ra,4(sp)
    29e8:	df000017 	ldw	fp,0(sp)
    29ec:	dec00204 	addi	sp,sp,8
    29f0:	f800283a 	ret

000029f4 <_ZNSaI6MyRectED2Ev>:
    29f4:	defffd04 	addi	sp,sp,-12
    29f8:	dfc00215 	stw	ra,8(sp)
    29fc:	df000115 	stw	fp,4(sp)
    2a00:	df000104 	addi	fp,sp,4
    2a04:	e13fff15 	stw	r4,-4(fp)
    2a08:	e13fff17 	ldw	r4,-4(fp)
    2a0c:	00029a40 	call	29a4 <_ZN9__gnu_cxx13new_allocatorI6MyRectED2Ev>
    2a10:	e037883a 	mov	sp,fp
    2a14:	dfc00117 	ldw	ra,4(sp)
    2a18:	df000017 	ldw	fp,0(sp)
    2a1c:	dec00204 	addi	sp,sp,8
    2a20:	f800283a 	ret

00002a24 <_ZN9__gnu_cxx13new_allocatorI6MyRectEC2ERKS2_>:
        struct rebind
        { typedef new_allocator<_Tp1> other; };

      new_allocator() throw() { }

      new_allocator(const new_allocator&) throw() { }
    2a24:	defffd04 	addi	sp,sp,-12
    2a28:	df000215 	stw	fp,8(sp)
    2a2c:	df000204 	addi	fp,sp,8
    2a30:	e13ffe15 	stw	r4,-8(fp)
    2a34:	e17fff15 	stw	r5,-4(fp)
    2a38:	e037883a 	mov	sp,fp
    2a3c:	df000017 	ldw	fp,0(sp)
    2a40:	dec00104 	addi	sp,sp,4
    2a44:	f800283a 	ret

00002a48 <_ZNSaI6MyRectEC1ERKS0_>:
        struct rebind
        { typedef allocator<_Tp1> other; };

      allocator() throw() { }

      allocator(const allocator& __a) throw()
    2a48:	defffc04 	addi	sp,sp,-16
    2a4c:	dfc00315 	stw	ra,12(sp)
    2a50:	df000215 	stw	fp,8(sp)
    2a54:	df000204 	addi	fp,sp,8
    2a58:	e13ffe15 	stw	r4,-8(fp)
    2a5c:	e17fff15 	stw	r5,-4(fp)
      : __glibcxx_base_allocator<_Tp>(__a) { }
    2a60:	e13ffe17 	ldw	r4,-8(fp)
    2a64:	e17fff17 	ldw	r5,-4(fp)
    2a68:	0002a240 	call	2a24 <_ZN9__gnu_cxx13new_allocatorI6MyRectEC2ERKS2_>
    2a6c:	e037883a 	mov	sp,fp
    2a70:	dfc00117 	ldw	ra,4(sp)
    2a74:	df000017 	ldw	fp,0(sp)
    2a78:	dec00204 	addi	sp,sp,8
    2a7c:	f800283a 	ret

00002a80 <_ZNSaI6MyRectEC2ERKS0_>:
        struct rebind
        { typedef allocator<_Tp1> other; };

      allocator() throw() { }

      allocator(const allocator& __a) throw()
    2a80:	defffc04 	addi	sp,sp,-16
    2a84:	dfc00315 	stw	ra,12(sp)
    2a88:	df000215 	stw	fp,8(sp)
    2a8c:	df000204 	addi	fp,sp,8
    2a90:	e13ffe15 	stw	r4,-8(fp)
    2a94:	e17fff15 	stw	r5,-4(fp)
      : __glibcxx_base_allocator<_Tp>(__a) { }
    2a98:	e13ffe17 	ldw	r4,-8(fp)
    2a9c:	e17fff17 	ldw	r5,-4(fp)
    2aa0:	0002a240 	call	2a24 <_ZN9__gnu_cxx13new_allocatorI6MyRectEC2ERKS2_>
    2aa4:	e037883a 	mov	sp,fp
    2aa8:	dfc00117 	ldw	ra,4(sp)
    2aac:	df000017 	ldw	fp,0(sp)
    2ab0:	dec00204 	addi	sp,sp,8
    2ab4:	f800283a 	ret

00002ab8 <_ZNSt12_Vector_baseI6MyRectSaIS0_EE12_Vector_implD1Ev>:
    {
      typedef typename _Alloc::template rebind<_Tp>::other _Tp_alloc_type;

      struct _Vector_impl 
      : public _Tp_alloc_type
      {
    2ab8:	defffd04 	addi	sp,sp,-12
    2abc:	dfc00215 	stw	ra,8(sp)
    2ac0:	df000115 	stw	fp,4(sp)
    2ac4:	df000104 	addi	fp,sp,4
    2ac8:	e13fff15 	stw	r4,-4(fp)
    2acc:	e13fff17 	ldw	r4,-4(fp)
    2ad0:	00029f40 	call	29f4 <_ZNSaI6MyRectED2Ev>
    2ad4:	e037883a 	mov	sp,fp
    2ad8:	dfc00117 	ldw	ra,4(sp)
    2adc:	df000017 	ldw	fp,0(sp)
    2ae0:	dec00204 	addi	sp,sp,8
    2ae4:	f800283a 	ret

00002ae8 <_ZNSt12_Vector_baseI6MyRectSaIS0_EE19_M_get_Tp_allocatorEv>:
      
    public:
      typedef _Alloc allocator_type;

      _Tp_alloc_type&
      _M_get_Tp_allocator()
    2ae8:	defffe04 	addi	sp,sp,-8
    2aec:	df000115 	stw	fp,4(sp)
    2af0:	df000104 	addi	fp,sp,4
    2af4:	e13fff15 	stw	r4,-4(fp)
      { return *static_cast<_Tp_alloc_type*>(&this->_M_impl); }
    2af8:	e0bfff17 	ldw	r2,-4(fp)
    2afc:	e037883a 	mov	sp,fp
    2b00:	df000017 	ldw	fp,0(sp)
    2b04:	dec00104 	addi	sp,sp,4
    2b08:	f800283a 	ret

00002b0c <_ZN9__gnu_cxx13new_allocatorI6MyRectE9constructEPS1_RKS1_>:
      { return size_t(-1) / sizeof(_Tp); }

      // _GLIBCXX_RESOLVE_LIB_DEFECTS
      // 402. wrong new expression in [some_] allocator::construct
      void 
      construct(pointer __p, const _Tp& __val) 
    2b0c:	defffa04 	addi	sp,sp,-24
    2b10:	dfc00515 	stw	ra,20(sp)
    2b14:	df000415 	stw	fp,16(sp)
    2b18:	df000404 	addi	fp,sp,16
    2b1c:	e13ffc15 	stw	r4,-16(fp)
    2b20:	e17ffd15 	stw	r5,-12(fp)
    2b24:	e1bffe15 	stw	r6,-8(fp)
      { ::new(__p) _Tp(__val); }
    2b28:	01000404 	movi	r4,16
    2b2c:	e17ffd17 	ldw	r5,-12(fp)
    2b30:	00024a40 	call	24a4 <_ZnwmPv>
    2b34:	e0bfff15 	stw	r2,-4(fp)
    2b38:	e0ffff17 	ldw	r3,-4(fp)
    2b3c:	1805003a 	cmpeq	r2,r3,zero
    2b40:	10000d1e 	bne	r2,zero,2b78 <_ZN9__gnu_cxx13new_allocatorI6MyRectE9constructEPS1_RKS1_+0x6c>
    2b44:	e0fffe17 	ldw	r3,-8(fp)
    2b48:	18800017 	ldw	r2,0(r3)
    2b4c:	e13fff17 	ldw	r4,-4(fp)
    2b50:	20800015 	stw	r2,0(r4)
    2b54:	18800117 	ldw	r2,4(r3)
    2b58:	e13fff17 	ldw	r4,-4(fp)
    2b5c:	20800115 	stw	r2,4(r4)
    2b60:	18800217 	ldw	r2,8(r3)
    2b64:	e13fff17 	ldw	r4,-4(fp)
    2b68:	20800215 	stw	r2,8(r4)
    2b6c:	18800317 	ldw	r2,12(r3)
    2b70:	e0ffff17 	ldw	r3,-4(fp)
    2b74:	18800315 	stw	r2,12(r3)
    2b78:	e037883a 	mov	sp,fp
    2b7c:	dfc00117 	ldw	ra,4(sp)
    2b80:	df000017 	ldw	fp,0(sp)
    2b84:	dec00204 	addi	sp,sp,8
    2b88:	f800283a 	ret

00002b8c <_ZNSt12_Vector_baseI6MyRectSaIS0_EE12_Vector_implC1ERKS1_>:
      : public _Tp_alloc_type
      {
	_Tp*           _M_start;
	_Tp*           _M_finish;
	_Tp*           _M_end_of_storage;
	_Vector_impl(_Tp_alloc_type const& __a)
    2b8c:	defffc04 	addi	sp,sp,-16
    2b90:	dfc00315 	stw	ra,12(sp)
    2b94:	df000215 	stw	fp,8(sp)
    2b98:	df000204 	addi	fp,sp,8
    2b9c:	e13ffe15 	stw	r4,-8(fp)
    2ba0:	e17fff15 	stw	r5,-4(fp)
	: _Tp_alloc_type(__a), _M_start(0), _M_finish(0), _M_end_of_storage(0)
    2ba4:	e13ffe17 	ldw	r4,-8(fp)
    2ba8:	e17fff17 	ldw	r5,-4(fp)
    2bac:	0002a800 	call	2a80 <_ZNSaI6MyRectEC2ERKS0_>
    2bb0:	e0bffe17 	ldw	r2,-8(fp)
    2bb4:	10000015 	stw	zero,0(r2)
    2bb8:	e0bffe17 	ldw	r2,-8(fp)
    2bbc:	10000115 	stw	zero,4(r2)
    2bc0:	e0bffe17 	ldw	r2,-8(fp)
    2bc4:	10000215 	stw	zero,8(r2)
	{ }
    2bc8:	e037883a 	mov	sp,fp
    2bcc:	dfc00117 	ldw	ra,4(sp)
    2bd0:	df000017 	ldw	fp,0(sp)
    2bd4:	dec00204 	addi	sp,sp,8
    2bd8:	f800283a 	ret

00002bdc <_ZNSt12_Vector_baseI6MyRectSaIS0_EEC2ERKS1_>:

      allocator_type
      get_allocator() const
      { return _M_get_Tp_allocator(); }

      _Vector_base(const allocator_type& __a)
    2bdc:	defffc04 	addi	sp,sp,-16
    2be0:	dfc00315 	stw	ra,12(sp)
    2be4:	df000215 	stw	fp,8(sp)
    2be8:	df000204 	addi	fp,sp,8
    2bec:	e13ffe15 	stw	r4,-8(fp)
    2bf0:	e17fff15 	stw	r5,-4(fp)
      : _M_impl(__a)
    2bf4:	e13ffe17 	ldw	r4,-8(fp)
    2bf8:	e17fff17 	ldw	r5,-4(fp)
    2bfc:	0002b8c0 	call	2b8c <_ZNSt12_Vector_baseI6MyRectSaIS0_EE12_Vector_implC1ERKS1_>
      { }
    2c00:	e037883a 	mov	sp,fp
    2c04:	dfc00117 	ldw	ra,4(sp)
    2c08:	df000017 	ldw	fp,0(sp)
    2c0c:	dec00204 	addi	sp,sp,8
    2c10:	f800283a 	ret

00002c14 <_ZNSt6vectorI6MyRectSaIS0_EEC1ERKS1_>:
      // (assign() and get_allocator() are also listed in this section)
      /**
       *  @brief  Default constructor creates no elements.
       */
      explicit
      vector(const allocator_type& __a = allocator_type())
    2c14:	defffc04 	addi	sp,sp,-16
    2c18:	dfc00315 	stw	ra,12(sp)
    2c1c:	df000215 	stw	fp,8(sp)
    2c20:	df000204 	addi	fp,sp,8
    2c24:	e13ffe15 	stw	r4,-8(fp)
    2c28:	e17fff15 	stw	r5,-4(fp)
      : _Base(__a)
    2c2c:	e13ffe17 	ldw	r4,-8(fp)
    2c30:	e17fff17 	ldw	r5,-4(fp)
    2c34:	0002bdc0 	call	2bdc <_ZNSt12_Vector_baseI6MyRectSaIS0_EEC2ERKS1_>
      { }
    2c38:	e037883a 	mov	sp,fp
    2c3c:	dfc00117 	ldw	ra,4(sp)
    2c40:	df000017 	ldw	fp,0(sp)
    2c44:	dec00204 	addi	sp,sp,8
    2c48:	f800283a 	ret

00002c4c <_ZN9__gnu_cxx17__normal_iteratorIPK6MyRectSt6vectorIS1_SaIS1_EEEC1ERKS3_>:
      typedef typename iterator_traits<_Iterator>::pointer   pointer;

      __normal_iterator() : _M_current(_Iterator()) { }

      explicit
      __normal_iterator(const _Iterator& __i) : _M_current(__i) { }
    2c4c:	defffd04 	addi	sp,sp,-12
    2c50:	df000215 	stw	fp,8(sp)
    2c54:	df000204 	addi	fp,sp,8
    2c58:	e13ffe15 	stw	r4,-8(fp)
    2c5c:	e17fff15 	stw	r5,-4(fp)
    2c60:	e0bfff17 	ldw	r2,-4(fp)
    2c64:	10c00017 	ldw	r3,0(r2)
    2c68:	e0bffe17 	ldw	r2,-8(fp)
    2c6c:	10c00015 	stw	r3,0(r2)
    2c70:	e037883a 	mov	sp,fp
    2c74:	df000017 	ldw	fp,0(sp)
    2c78:	dec00104 	addi	sp,sp,4
    2c7c:	f800283a 	ret

00002c80 <_ZNKSt6vectorI6MyRectSaIS0_EE3endEv>:
       *  Returns a read-only (constant) iterator that points one past
       *  the last element in the %vector.  Iteration is done in
       *  ordinary element order.
       */
      const_iterator
      end() const
    2c80:	defffb04 	addi	sp,sp,-20
    2c84:	dfc00415 	stw	ra,16(sp)
    2c88:	df000315 	stw	fp,12(sp)
    2c8c:	df000304 	addi	fp,sp,12
    2c90:	e13fff15 	stw	r4,-4(fp)
      { return const_iterator (this->_M_impl._M_finish); }
    2c94:	e0bfff17 	ldw	r2,-4(fp)
    2c98:	10800117 	ldw	r2,4(r2)
    2c9c:	e0bffd15 	stw	r2,-12(fp)
    2ca0:	e13ffe04 	addi	r4,fp,-8
    2ca4:	e17ffd04 	addi	r5,fp,-12
    2ca8:	0002c4c0 	call	2c4c <_ZN9__gnu_cxx17__normal_iteratorIPK6MyRectSt6vectorIS1_SaIS1_EEEC1ERKS3_>
    2cac:	e0bffe17 	ldw	r2,-8(fp)
    2cb0:	e037883a 	mov	sp,fp
    2cb4:	dfc00117 	ldw	ra,4(sp)
    2cb8:	df000017 	ldw	fp,0(sp)
    2cbc:	dec00204 	addi	sp,sp,8
    2cc0:	f800283a 	ret

00002cc4 <_ZNKSt6vectorI6MyRectSaIS0_EE5beginEv>:
       *  Returns a read-only (constant) iterator that points to the
       *  first element in the %vector.  Iteration is done in ordinary
       *  element order.
       */
      const_iterator
      begin() const
    2cc4:	defffb04 	addi	sp,sp,-20
    2cc8:	dfc00415 	stw	ra,16(sp)
    2ccc:	df000315 	stw	fp,12(sp)
    2cd0:	df000304 	addi	fp,sp,12
    2cd4:	e13fff15 	stw	r4,-4(fp)
      { return const_iterator (this->_M_impl._M_start); }
    2cd8:	e0bfff17 	ldw	r2,-4(fp)
    2cdc:	10800017 	ldw	r2,0(r2)
    2ce0:	e0bffd15 	stw	r2,-12(fp)
    2ce4:	e13ffe04 	addi	r4,fp,-8
    2ce8:	e17ffd04 	addi	r5,fp,-12
    2cec:	0002c4c0 	call	2c4c <_ZN9__gnu_cxx17__normal_iteratorIPK6MyRectSt6vectorIS1_SaIS1_EEEC1ERKS3_>
    2cf0:	e0bffe17 	ldw	r2,-8(fp)
    2cf4:	e037883a 	mov	sp,fp
    2cf8:	dfc00117 	ldw	ra,4(sp)
    2cfc:	df000017 	ldw	fp,0(sp)
    2d00:	dec00204 	addi	sp,sp,8
    2d04:	f800283a 	ret

00002d08 <_ZN9__gnu_cxx17__normal_iteratorIP6MyRectSt6vectorIS1_SaIS1_EEEC1ERKS2_>:
    2d08:	defffd04 	addi	sp,sp,-12
    2d0c:	df000215 	stw	fp,8(sp)
    2d10:	df000204 	addi	fp,sp,8
    2d14:	e13ffe15 	stw	r4,-8(fp)
    2d18:	e17fff15 	stw	r5,-4(fp)
    2d1c:	e0bfff17 	ldw	r2,-4(fp)
    2d20:	10c00017 	ldw	r3,0(r2)
    2d24:	e0bffe17 	ldw	r2,-8(fp)
    2d28:	10c00015 	stw	r3,0(r2)
    2d2c:	e037883a 	mov	sp,fp
    2d30:	df000017 	ldw	fp,0(sp)
    2d34:	dec00104 	addi	sp,sp,4
    2d38:	f800283a 	ret

00002d3c <_ZNSt6vectorI6MyRectSaIS0_EE3endEv>:
       *  Returns a read/write iterator that points one past the last
       *  element in the %vector.  Iteration is done in ordinary
       *  element order.
       */
      iterator
      end()
    2d3c:	defffc04 	addi	sp,sp,-16
    2d40:	dfc00315 	stw	ra,12(sp)
    2d44:	df000215 	stw	fp,8(sp)
    2d48:	df000204 	addi	fp,sp,8
    2d4c:	e13fff15 	stw	r4,-4(fp)
      { return iterator (this->_M_impl._M_finish); }
    2d50:	e0bfff17 	ldw	r2,-4(fp)
    2d54:	11400104 	addi	r5,r2,4
    2d58:	e13ffe04 	addi	r4,fp,-8
    2d5c:	0002d080 	call	2d08 <_ZN9__gnu_cxx17__normal_iteratorIP6MyRectSt6vectorIS1_SaIS1_EEEC1ERKS2_>
    2d60:	e0bffe17 	ldw	r2,-8(fp)
    2d64:	e037883a 	mov	sp,fp
    2d68:	dfc00117 	ldw	ra,4(sp)
    2d6c:	df000017 	ldw	fp,0(sp)
    2d70:	dec00204 	addi	sp,sp,8
    2d74:	f800283a 	ret

00002d78 <_ZNK9__gnu_cxx17__normal_iteratorIP6MyRectSt6vectorIS1_SaIS1_EEEdeEv>:
			  >::__type>& __i)
        : _M_current(__i.base()) { }

      // Forward iterator requirements
      reference
      operator*() const
    2d78:	defffe04 	addi	sp,sp,-8
    2d7c:	df000115 	stw	fp,4(sp)
    2d80:	df000104 	addi	fp,sp,4
    2d84:	e13fff15 	stw	r4,-4(fp)
      { return *_M_current; }
    2d88:	e0bfff17 	ldw	r2,-4(fp)
    2d8c:	10800017 	ldw	r2,0(r2)
    2d90:	e037883a 	mov	sp,fp
    2d94:	df000017 	ldw	fp,0(sp)
    2d98:	dec00104 	addi	sp,sp,4
    2d9c:	f800283a 	ret

00002da0 <_ZNKSt6vectorI6MyRectSaIS0_EE8max_sizeEv>:
      size() const
      { return size_type(end() - begin()); }

      /**  Returns the size() of the largest possible %vector.  */
      size_type
      max_size() const
    2da0:	defffe04 	addi	sp,sp,-8
    2da4:	df000115 	stw	fp,4(sp)
    2da8:	df000104 	addi	fp,sp,4
    2dac:	e13fff15 	stw	r4,-4(fp)
      { return size_type(-1) / sizeof(value_type); }
    2db0:	00840034 	movhi	r2,4096
    2db4:	10bfffc4 	addi	r2,r2,-1
    2db8:	e037883a 	mov	sp,fp
    2dbc:	df000017 	ldw	fp,0(sp)
    2dc0:	dec00104 	addi	sp,sp,4
    2dc4:	f800283a 	ret

00002dc8 <_ZNK9__gnu_cxx17__normal_iteratorIP6MyRectSt6vectorIS1_SaIS1_EEE4baseEv>:
      __normal_iterator
      operator-(const difference_type& __n) const
      { return __normal_iterator(_M_current - __n); }

      const _Iterator&
      base() const
    2dc8:	defffe04 	addi	sp,sp,-8
    2dcc:	df000115 	stw	fp,4(sp)
    2dd0:	df000104 	addi	fp,sp,4
    2dd4:	e13fff15 	stw	r4,-4(fp)
      { return _M_current; }
    2dd8:	e0bfff17 	ldw	r2,-4(fp)
    2ddc:	e037883a 	mov	sp,fp
    2de0:	df000017 	ldw	fp,0(sp)
    2de4:	dec00104 	addi	sp,sp,4
    2de8:	f800283a 	ret

00002dec <_ZN9__gnu_cxx17__normal_iteratorIP6MyRectSt6vectorIS1_SaIS1_EEEppEv>:
      pointer
      operator->() const
      { return _M_current; }

      __normal_iterator&
      operator++()
    2dec:	defffe04 	addi	sp,sp,-8
    2df0:	df000115 	stw	fp,4(sp)
    2df4:	df000104 	addi	fp,sp,4
    2df8:	e13fff15 	stw	r4,-4(fp)
      {
	++_M_current;
    2dfc:	e0bfff17 	ldw	r2,-4(fp)
    2e00:	10800017 	ldw	r2,0(r2)
    2e04:	10c00404 	addi	r3,r2,16
    2e08:	e0bfff17 	ldw	r2,-4(fp)
    2e0c:	10c00015 	stw	r3,0(r2)
	return *this;
    2e10:	e0bfff17 	ldw	r2,-4(fp)
    2e14:	e037883a 	mov	sp,fp
    2e18:	df000017 	ldw	fp,0(sp)
    2e1c:	dec00104 	addi	sp,sp,4
    2e20:	f800283a 	ret

00002e24 <_ZNSt6vectorI6MyRectSaIS0_EE5beginEv>:
       *  Returns a read/write iterator that points to the first
       *  element in the %vector.  Iteration is done in ordinary
       *  element order.
       */
      iterator
      begin()
    2e24:	defffc04 	addi	sp,sp,-16
    2e28:	dfc00315 	stw	ra,12(sp)
    2e2c:	df000215 	stw	fp,8(sp)
    2e30:	df000204 	addi	fp,sp,8
    2e34:	e13fff15 	stw	r4,-4(fp)
      { return iterator (this->_M_impl._M_start); }
    2e38:	e17fff17 	ldw	r5,-4(fp)
    2e3c:	e13ffe04 	addi	r4,fp,-8
    2e40:	0002d080 	call	2d08 <_ZN9__gnu_cxx17__normal_iteratorIP6MyRectSt6vectorIS1_SaIS1_EEEC1ERKS2_>
    2e44:	e0bffe17 	ldw	r2,-8(fp)
    2e48:	e037883a 	mov	sp,fp
    2e4c:	dfc00117 	ldw	ra,4(sp)
    2e50:	df000017 	ldw	fp,0(sp)
    2e54:	dec00204 	addi	sp,sp,8
    2e58:	f800283a 	ret

00002e5c <_ZNK9__gnu_cxx17__normal_iteratorIPK6MyRectSt6vectorIS1_SaIS1_EEE4baseEv>:
      __normal_iterator
      operator-(const difference_type& __n) const
      { return __normal_iterator(_M_current - __n); }

      const _Iterator&
      base() const
    2e5c:	defffe04 	addi	sp,sp,-8
    2e60:	df000115 	stw	fp,4(sp)
    2e64:	df000104 	addi	fp,sp,4
    2e68:	e13fff15 	stw	r4,-4(fp)
      { return _M_current; }
    2e6c:	e0bfff17 	ldw	r2,-4(fp)
    2e70:	e037883a 	mov	sp,fp
    2e74:	df000017 	ldw	fp,0(sp)
    2e78:	dec00104 	addi	sp,sp,4
    2e7c:	f800283a 	ret

00002e80 <_ZN9__gnu_cxxmiIPK6MyRectS3_St6vectorIS1_SaIS1_EEEENS_17__normal_iteratorIT_T1_E15difference_typeERKSA_RKNS7_IT0_S9_EE>:
  // operators but also operator- must accept mixed iterator/const_iterator
  // parameters.
  template<typename _IteratorL, typename _IteratorR, typename _Container>
    inline typename __normal_iterator<_IteratorL, _Container>::difference_type
    operator-(const __normal_iterator<_IteratorL, _Container>& __lhs,
	      const __normal_iterator<_IteratorR, _Container>& __rhs)
    2e80:	defffb04 	addi	sp,sp,-20
    2e84:	dfc00415 	stw	ra,16(sp)
    2e88:	df000315 	stw	fp,12(sp)
    2e8c:	dc000215 	stw	r16,8(sp)
    2e90:	df000204 	addi	fp,sp,8
    2e94:	e13ffe15 	stw	r4,-8(fp)
    2e98:	e17fff15 	stw	r5,-4(fp)
    { return __lhs.base() - __rhs.base(); }
    2e9c:	e13ffe17 	ldw	r4,-8(fp)
    2ea0:	0002e5c0 	call	2e5c <_ZNK9__gnu_cxx17__normal_iteratorIPK6MyRectSt6vectorIS1_SaIS1_EEE4baseEv>
    2ea4:	10800017 	ldw	r2,0(r2)
    2ea8:	1021883a 	mov	r16,r2
    2eac:	e13fff17 	ldw	r4,-4(fp)
    2eb0:	0002e5c0 	call	2e5c <_ZNK9__gnu_cxx17__normal_iteratorIPK6MyRectSt6vectorIS1_SaIS1_EEE4baseEv>
    2eb4:	10800017 	ldw	r2,0(r2)
    2eb8:	8085c83a 	sub	r2,r16,r2
    2ebc:	1005d13a 	srai	r2,r2,4
    2ec0:	e037883a 	mov	sp,fp
    2ec4:	dfc00217 	ldw	ra,8(sp)
    2ec8:	df000117 	ldw	fp,4(sp)
    2ecc:	dc000017 	ldw	r16,0(sp)
    2ed0:	dec00304 	addi	sp,sp,12
    2ed4:	f800283a 	ret

00002ed8 <_ZNKSt6vectorI6MyRectSaIS0_EE4sizeEv>:
      { return const_reverse_iterator(begin()); }

      // [23.2.4.2] capacity
      /**  Returns the number of elements in the %vector.  */
      size_type
      size() const
    2ed8:	defffb04 	addi	sp,sp,-20
    2edc:	dfc00415 	stw	ra,16(sp)
    2ee0:	df000315 	stw	fp,12(sp)
    2ee4:	df000304 	addi	fp,sp,12
    2ee8:	e13fff15 	stw	r4,-4(fp)
      { return size_type(end() - begin()); }
    2eec:	e13fff17 	ldw	r4,-4(fp)
    2ef0:	0002c800 	call	2c80 <_ZNKSt6vectorI6MyRectSaIS0_EE3endEv>
    2ef4:	e0bffe15 	stw	r2,-8(fp)
    2ef8:	e13fff17 	ldw	r4,-4(fp)
    2efc:	0002cc40 	call	2cc4 <_ZNKSt6vectorI6MyRectSaIS0_EE5beginEv>
    2f00:	e0bffd15 	stw	r2,-12(fp)
    2f04:	e13ffe04 	addi	r4,fp,-8
    2f08:	e17ffd04 	addi	r5,fp,-12
    2f0c:	0002e800 	call	2e80 <_ZN9__gnu_cxxmiIPK6MyRectS3_St6vectorIS1_SaIS1_EEEENS_17__normal_iteratorIT_T1_E15difference_typeERKSA_RKNS7_IT0_S9_EE>
    2f10:	e037883a 	mov	sp,fp
    2f14:	dfc00117 	ldw	ra,4(sp)
    2f18:	df000017 	ldw	fp,0(sp)
    2f1c:	dec00204 	addi	sp,sp,8
    2f20:	f800283a 	ret

00002f24 <_ZN6MyRectD1Ev>:
    int x;
    int y;
    int width;
    int height;
}
MyRect;
    2f24:	defffe04 	addi	sp,sp,-8
    2f28:	df000115 	stw	fp,4(sp)
    2f2c:	df000104 	addi	fp,sp,4
    2f30:	e13fff15 	stw	r4,-4(fp)
    2f34:	e037883a 	mov	sp,fp
    2f38:	df000017 	ldw	fp,0(sp)
    2f3c:	dec00104 	addi	sp,sp,4
    2f40:	f800283a 	ret

00002f44 <_ZSt8_DestroyI6MyRectEvPT_>:
   * Destroy the object pointed to by a pointer type.
   * @endif
   */
  template<typename _Tp>
    inline void
    _Destroy(_Tp* __pointer)
    2f44:	defffd04 	addi	sp,sp,-12
    2f48:	dfc00215 	stw	ra,8(sp)
    2f4c:	df000115 	stw	fp,4(sp)
    2f50:	df000104 	addi	fp,sp,4
    2f54:	e13fff15 	stw	r4,-4(fp)
    { __pointer->~_Tp(); }
    2f58:	e13fff17 	ldw	r4,-4(fp)
    2f5c:	0002f240 	call	2f24 <_ZN6MyRectD1Ev>
    2f60:	e037883a 	mov	sp,fp
    2f64:	dfc00117 	ldw	ra,4(sp)
    2f68:	df000017 	ldw	fp,0(sp)
    2f6c:	dec00204 	addi	sp,sp,8
    2f70:	f800283a 	ret

00002f74 <_ZSt13__destroy_auxIP6MyRectEvT_S2_12__false_type>:
   * @endif
   */
  template<typename _ForwardIterator>
    inline void
    __destroy_aux(_ForwardIterator __first, _ForwardIterator __last,
		  __false_type)
    2f74:	defffb04 	addi	sp,sp,-20
    2f78:	dfc00415 	stw	ra,16(sp)
    2f7c:	df000315 	stw	fp,12(sp)
    2f80:	df000304 	addi	fp,sp,12
    2f84:	e13ffd15 	stw	r4,-12(fp)
    2f88:	e17ffe15 	stw	r5,-8(fp)
    2f8c:	e1bfff05 	stb	r6,-4(fp)
    {
      for (; __first != __last; ++__first)
    2f90:	00000506 	br	2fa8 <_ZSt13__destroy_auxIP6MyRectEvT_S2_12__false_type+0x34>
	std::_Destroy(&*__first);
    2f94:	e13ffd17 	ldw	r4,-12(fp)
    2f98:	0002f440 	call	2f44 <_ZSt8_DestroyI6MyRectEvPT_>
  template<typename _ForwardIterator>
    inline void
    __destroy_aux(_ForwardIterator __first, _ForwardIterator __last,
		  __false_type)
    {
      for (; __first != __last; ++__first)
    2f9c:	e0bffd17 	ldw	r2,-12(fp)
    2fa0:	10800404 	addi	r2,r2,16
    2fa4:	e0bffd15 	stw	r2,-12(fp)
    2fa8:	e0fffd17 	ldw	r3,-12(fp)
    2fac:	e0bffe17 	ldw	r2,-8(fp)
    2fb0:	18bff81e 	bne	r3,r2,2f94 <_ZSt13__destroy_auxIP6MyRectEvT_S2_12__false_type+0x20>
	std::_Destroy(&*__first);
    2fb4:	e037883a 	mov	sp,fp
    2fb8:	dfc00117 	ldw	ra,4(sp)
    2fbc:	df000017 	ldw	fp,0(sp)
    2fc0:	dec00204 	addi	sp,sp,8
    2fc4:	f800283a 	ret

00002fc8 <_ZSt8_DestroyIP6MyRectEvT_S2_>:
   * away, otherwise the objects' destructors must be invoked.
   * @endif
   */
  template<typename _ForwardIterator>
    inline void
    _Destroy(_ForwardIterator __first, _ForwardIterator __last)
    2fc8:	defffb04 	addi	sp,sp,-20
    2fcc:	dfc00415 	stw	ra,16(sp)
    2fd0:	df000315 	stw	fp,12(sp)
    2fd4:	df000304 	addi	fp,sp,12
    2fd8:	e13ffd15 	stw	r4,-12(fp)
    2fdc:	e17ffe15 	stw	r5,-8(fp)
      typedef typename iterator_traits<_ForwardIterator>::value_type
                       _Value_type;
      typedef typename std::__is_scalar<_Value_type>::__type
	               _Has_trivial_destructor;

      std::__destroy_aux(__first, __last, _Has_trivial_destructor());
    2fe0:	e13ffd17 	ldw	r4,-12(fp)
    2fe4:	e17ffe17 	ldw	r5,-8(fp)
    2fe8:	e1bfff03 	ldbu	r6,-4(fp)
    2fec:	0002f740 	call	2f74 <_ZSt13__destroy_auxIP6MyRectEvT_S2_12__false_type>
    2ff0:	e037883a 	mov	sp,fp
    2ff4:	dfc00117 	ldw	ra,4(sp)
    2ff8:	df000017 	ldw	fp,0(sp)
    2ffc:	dec00204 	addi	sp,sp,8
    3000:	f800283a 	ret

00003004 <_ZSt8_DestroyIP6MyRectS0_EvT_S2_SaIT0_E>:
    }

  template<typename _ForwardIterator, typename _Tp>
    inline void
    _Destroy(_ForwardIterator __first, _ForwardIterator __last,
	     allocator<_Tp>)
    3004:	defffb04 	addi	sp,sp,-20
    3008:	dfc00415 	stw	ra,16(sp)
    300c:	df000315 	stw	fp,12(sp)
    3010:	df000304 	addi	fp,sp,12
    3014:	e13ffd15 	stw	r4,-12(fp)
    3018:	e17ffe15 	stw	r5,-8(fp)
    301c:	e1bfff15 	stw	r6,-4(fp)
    {
      _Destroy(__first, __last);
    3020:	e13ffd17 	ldw	r4,-12(fp)
    3024:	e17ffe17 	ldw	r5,-8(fp)
    3028:	0002fc80 	call	2fc8 <_ZSt8_DestroyIP6MyRectEvT_S2_>
    302c:	e037883a 	mov	sp,fp
    3030:	dfc00117 	ldw	ra,4(sp)
    3034:	df000017 	ldw	fp,0(sp)
    3038:	dec00204 	addi	sp,sp,8
    303c:	f800283a 	ret

00003040 <_ZNK9__gnu_cxx13new_allocatorI6MyRectE8max_sizeEv>:
      void
      deallocate(pointer __p, size_type)
      { ::operator delete(__p); }

      size_type
      max_size() const throw() 
    3040:	defffe04 	addi	sp,sp,-8
    3044:	df000115 	stw	fp,4(sp)
    3048:	df000104 	addi	fp,sp,4
    304c:	e13fff15 	stw	r4,-4(fp)
      { return size_t(-1) / sizeof(_Tp); }
    3050:	00840034 	movhi	r2,4096
    3054:	10bfffc4 	addi	r2,r2,-1
    3058:	e037883a 	mov	sp,fp
    305c:	df000017 	ldw	fp,0(sp)
    3060:	dec00104 	addi	sp,sp,4
    3064:	f800283a 	ret

00003068 <_ZSt10_ConstructI6MyRectS0_EvPT_RKT0_>:
   * object's constructor with an initializer.
   * @endif
   */
  template<typename _T1, typename _T2>
    inline void
    _Construct(_T1* __p, const _T2& __value)
    3068:	defffb04 	addi	sp,sp,-20
    306c:	dfc00415 	stw	ra,16(sp)
    3070:	df000315 	stw	fp,12(sp)
    3074:	df000304 	addi	fp,sp,12
    3078:	e13ffd15 	stw	r4,-12(fp)
    307c:	e17ffe15 	stw	r5,-8(fp)
    {
      // _GLIBCXX_RESOLVE_LIB_DEFECTS
      // 402. wrong new expression in [some_]allocator::construct
      ::new(static_cast<void*>(__p)) _T1(__value);
    3080:	01000404 	movi	r4,16
    3084:	e17ffd17 	ldw	r5,-12(fp)
    3088:	00024a40 	call	24a4 <_ZnwmPv>
    308c:	e0bfff15 	stw	r2,-4(fp)
    3090:	e0ffff17 	ldw	r3,-4(fp)
    3094:	1805003a 	cmpeq	r2,r3,zero
    3098:	10000d1e 	bne	r2,zero,30d0 <_ZSt10_ConstructI6MyRectS0_EvPT_RKT0_+0x68>
    309c:	e0fffe17 	ldw	r3,-8(fp)
    30a0:	18800017 	ldw	r2,0(r3)
    30a4:	e13fff17 	ldw	r4,-4(fp)
    30a8:	20800015 	stw	r2,0(r4)
    30ac:	18800117 	ldw	r2,4(r3)
    30b0:	e13fff17 	ldw	r4,-4(fp)
    30b4:	20800115 	stw	r2,4(r4)
    30b8:	18800217 	ldw	r2,8(r3)
    30bc:	e13fff17 	ldw	r4,-4(fp)
    30c0:	20800215 	stw	r2,8(r4)
    30c4:	18800317 	ldw	r2,12(r3)
    30c8:	e0ffff17 	ldw	r3,-4(fp)
    30cc:	18800315 	stw	r2,12(r3)
    30d0:	e037883a 	mov	sp,fp
    30d4:	dfc00117 	ldw	ra,4(sp)
    30d8:	df000017 	ldw	fp,0(sp)
    30dc:	dec00204 	addi	sp,sp,8
    30e0:	f800283a 	ret

000030e4 <_ZNSt15__copy_backwardILb0ESt26random_access_iterator_tagE6copy_bIP6MyRectS4_EET0_T_S6_S5_>:
  template<bool _BoolType>
    struct __copy_backward<_BoolType, random_access_iterator_tag>
    {
      template<typename _BI1, typename _BI2>
        static _BI2
        copy_b(_BI1 __first, _BI1 __last, _BI2 __result)
    30e4:	defffb04 	addi	sp,sp,-20
    30e8:	df000415 	stw	fp,16(sp)
    30ec:	df000404 	addi	fp,sp,16
    30f0:	e13ffd15 	stw	r4,-12(fp)
    30f4:	e17ffe15 	stw	r5,-8(fp)
    30f8:	e1bfff15 	stw	r6,-4(fp)
        { 
	  typename iterator_traits<_BI1>::difference_type __n;
	  for (__n = __last - __first; __n > 0; --__n)
    30fc:	e0fffe17 	ldw	r3,-8(fp)
    3100:	e0bffd17 	ldw	r2,-12(fp)
    3104:	1885c83a 	sub	r2,r3,r2
    3108:	1005d13a 	srai	r2,r2,4
    310c:	e0bffc15 	stw	r2,-16(fp)
    3110:	00001306 	br	3160 <_ZNSt15__copy_backwardILb0ESt26random_access_iterator_tagE6copy_bIP6MyRectS4_EET0_T_S6_S5_+0x7c>
	    *--__result = *--__last;
    3114:	e0bfff17 	ldw	r2,-4(fp)
    3118:	10bffc04 	addi	r2,r2,-16
    311c:	e0bfff15 	stw	r2,-4(fp)
    3120:	e13fff17 	ldw	r4,-4(fp)
    3124:	e0bffe17 	ldw	r2,-8(fp)
    3128:	10bffc04 	addi	r2,r2,-16
    312c:	e0bffe15 	stw	r2,-8(fp)
    3130:	e0fffe17 	ldw	r3,-8(fp)
    3134:	18800017 	ldw	r2,0(r3)
    3138:	20800015 	stw	r2,0(r4)
    313c:	18800117 	ldw	r2,4(r3)
    3140:	20800115 	stw	r2,4(r4)
    3144:	18800217 	ldw	r2,8(r3)
    3148:	20800215 	stw	r2,8(r4)
    314c:	18800317 	ldw	r2,12(r3)
    3150:	20800315 	stw	r2,12(r4)
      template<typename _BI1, typename _BI2>
        static _BI2
        copy_b(_BI1 __first, _BI1 __last, _BI2 __result)
        { 
	  typename iterator_traits<_BI1>::difference_type __n;
	  for (__n = __last - __first; __n > 0; --__n)
    3154:	e0bffc17 	ldw	r2,-16(fp)
    3158:	10bfffc4 	addi	r2,r2,-1
    315c:	e0bffc15 	stw	r2,-16(fp)
    3160:	e0bffc17 	ldw	r2,-16(fp)
    3164:	10800048 	cmpgei	r2,r2,1
    3168:	103fea1e 	bne	r2,zero,3114 <_ZNSt15__copy_backwardILb0ESt26random_access_iterator_tagE6copy_bIP6MyRectS4_EET0_T_S6_S5_+0x30>
	    *--__result = *--__last;
	  return __result;
    316c:	e0bfff17 	ldw	r2,-4(fp)
    3170:	e037883a 	mov	sp,fp
    3174:	df000017 	ldw	fp,0(sp)
    3178:	dec00104 	addi	sp,sp,4
    317c:	f800283a 	ret

00003180 <_ZSt19__copy_backward_auxIP6MyRectS1_ET0_T_S3_S2_>:
	}
    };

  template<typename _BI1, typename _BI2>
    inline _BI2
    __copy_backward_aux(_BI1 __first, _BI1 __last, _BI2 __result)
    3180:	defffa04 	addi	sp,sp,-24
    3184:	dfc00515 	stw	ra,20(sp)
    3188:	df000415 	stw	fp,16(sp)
    318c:	df000404 	addi	fp,sp,16
    3190:	e13ffd15 	stw	r4,-12(fp)
    3194:	e17ffe15 	stw	r5,-8(fp)
    3198:	e1bfff15 	stw	r6,-4(fp)
      typedef typename iterator_traits<_BI2>::value_type _ValueType2;
      typedef typename iterator_traits<_BI1>::iterator_category _Category;
      const bool __simple = (__is_scalar<_ValueType1>::__value
	                     && __is_pointer<_BI1>::__value
	                     && __is_pointer<_BI2>::__value
			     && __are_same<_ValueType1, _ValueType2>::__value);
    319c:	e03ffc05 	stb	zero,-16(fp)

      return std::__copy_backward<__simple, _Category>::copy_b(__first, __last,
							       __result);
    31a0:	e13ffd17 	ldw	r4,-12(fp)
    31a4:	e17ffe17 	ldw	r5,-8(fp)
    31a8:	e1bfff17 	ldw	r6,-4(fp)
    31ac:	00030e40 	call	30e4 <_ZNSt15__copy_backwardILb0ESt26random_access_iterator_tagE6copy_bIP6MyRectS4_EET0_T_S6_S5_>
    31b0:	e037883a 	mov	sp,fp
    31b4:	dfc00117 	ldw	ra,4(sp)
    31b8:	df000017 	ldw	fp,0(sp)
    31bc:	dec00204 	addi	sp,sp,8
    31c0:	f800283a 	ret

000031c4 <_ZNSt22__copy_backward_normalILb1ELb1EE8copy_b_nIN9__gnu_cxx17__normal_iteratorIP6MyRectSt6vectorIS4_SaIS4_EEEES9_EET0_T_SB_SA_>:
  template<>
    struct __copy_backward_normal<true, true>
    {
      template<typename _BI1, typename _BI2>
        static _BI2
        copy_b_n(_BI1 __first, _BI1 __last, _BI2 __result)
    31c4:	defff704 	addi	sp,sp,-36
    31c8:	dfc00815 	stw	ra,32(sp)
    31cc:	df000715 	stw	fp,28(sp)
    31d0:	dc400615 	stw	r17,24(sp)
    31d4:	dc000515 	stw	r16,20(sp)
    31d8:	df000504 	addi	fp,sp,20
    31dc:	e13ffd15 	stw	r4,-12(fp)
    31e0:	e17ffe15 	stw	r5,-8(fp)
    31e4:	e1bfff15 	stw	r6,-4(fp)
        { return _BI2(std::__copy_backward_aux(__first.base(), __last.base(),
					       __result.base())); }
    31e8:	e13ffd04 	addi	r4,fp,-12
    31ec:	0002dc80 	call	2dc8 <_ZNK9__gnu_cxx17__normal_iteratorIP6MyRectSt6vectorIS1_SaIS1_EEE4baseEv>
    31f0:	14400017 	ldw	r17,0(r2)
    31f4:	e13ffe04 	addi	r4,fp,-8
    31f8:	0002dc80 	call	2dc8 <_ZNK9__gnu_cxx17__normal_iteratorIP6MyRectSt6vectorIS1_SaIS1_EEE4baseEv>
    31fc:	14000017 	ldw	r16,0(r2)
    3200:	e13fff04 	addi	r4,fp,-4
    3204:	0002dc80 	call	2dc8 <_ZNK9__gnu_cxx17__normal_iteratorIP6MyRectSt6vectorIS1_SaIS1_EEE4baseEv>
    3208:	11800017 	ldw	r6,0(r2)
    320c:	8809883a 	mov	r4,r17
    3210:	800b883a 	mov	r5,r16
    3214:	00031800 	call	3180 <_ZSt19__copy_backward_auxIP6MyRectS1_ET0_T_S3_S2_>
    3218:	e0bffb15 	stw	r2,-20(fp)
    321c:	e13ffc04 	addi	r4,fp,-16
    3220:	e17ffb04 	addi	r5,fp,-20
    3224:	0002d080 	call	2d08 <_ZN9__gnu_cxx17__normal_iteratorIP6MyRectSt6vectorIS1_SaIS1_EEEC1ERKS2_>
    3228:	e0bffc17 	ldw	r2,-16(fp)
    322c:	e037883a 	mov	sp,fp
    3230:	dfc00317 	ldw	ra,12(sp)
    3234:	df000217 	ldw	fp,8(sp)
    3238:	dc400117 	ldw	r17,4(sp)
    323c:	dc000017 	ldw	r16,0(sp)
    3240:	dec00404 	addi	sp,sp,16
    3244:	f800283a 	ret

00003248 <_ZSt13copy_backwardIN9__gnu_cxx17__normal_iteratorIP6MyRectSt6vectorIS2_SaIS2_EEEES7_ET0_T_S9_S8_>:
   *  Result may not be in the range [first,last).  Use copy instead.  Note
   *  that the start of the output range may overlap [first,last).
  */
  template <typename _BI1, typename _BI2>
    inline _BI2
    copy_backward(_BI1 __first, _BI1 __last, _BI2 __result)
    3248:	defffa04 	addi	sp,sp,-24
    324c:	dfc00515 	stw	ra,20(sp)
    3250:	df000415 	stw	fp,16(sp)
    3254:	df000404 	addi	fp,sp,16
    3258:	e13ffd15 	stw	r4,-12(fp)
    325c:	e17ffe15 	stw	r5,-8(fp)
    3260:	e1bfff15 	stw	r6,-4(fp)
      __glibcxx_function_requires(_ConvertibleConcept<
	    typename iterator_traits<_BI1>::value_type,
	    typename iterator_traits<_BI2>::value_type>)
      __glibcxx_requires_valid_range(__first, __last);

      const bool __bi1 = __is_normal_iterator<_BI1>::__value;
    3264:	00800044 	movi	r2,1
    3268:	e0bffc45 	stb	r2,-15(fp)
      const bool __bi2 = __is_normal_iterator<_BI2>::__value;
    326c:	00800044 	movi	r2,1
    3270:	e0bffc05 	stb	r2,-16(fp)
      return std::__copy_backward_normal<__bi1, __bi2>::copy_b_n(__first, __last,
								 __result);
    3274:	e13ffd17 	ldw	r4,-12(fp)
    3278:	e17ffe17 	ldw	r5,-8(fp)
    327c:	e1bfff17 	ldw	r6,-4(fp)
    3280:	00031c40 	call	31c4 <_ZNSt22__copy_backward_normalILb1ELb1EE8copy_b_nIN9__gnu_cxx17__normal_iteratorIP6MyRectSt6vectorIS4_SaIS4_EEEES9_EET0_T_SB_SA_>
    3284:	e037883a 	mov	sp,fp
    3288:	dfc00117 	ldw	ra,4(sp)
    328c:	df000017 	ldw	fp,0(sp)
    3290:	dec00204 	addi	sp,sp,8
    3294:	f800283a 	ret

00003298 <_ZN9__gnu_cxxneIP6MyRectSt6vectorIS1_SaIS1_EEEEbRKNS_17__normal_iteratorIT_T0_EESB_>:
    { return __lhs.base() != __rhs.base(); }

  template<typename _Iterator, typename _Container>
    inline bool
    operator!=(const __normal_iterator<_Iterator, _Container>& __lhs,
	       const __normal_iterator<_Iterator, _Container>& __rhs)
    3298:	defffb04 	addi	sp,sp,-20
    329c:	dfc00415 	stw	ra,16(sp)
    32a0:	df000315 	stw	fp,12(sp)
    32a4:	dc000215 	stw	r16,8(sp)
    32a8:	df000204 	addi	fp,sp,8
    32ac:	e13ffe15 	stw	r4,-8(fp)
    32b0:	e17fff15 	stw	r5,-4(fp)
    { return __lhs.base() != __rhs.base(); }
    32b4:	e13ffe17 	ldw	r4,-8(fp)
    32b8:	0002dc80 	call	2dc8 <_ZNK9__gnu_cxx17__normal_iteratorIP6MyRectSt6vectorIS1_SaIS1_EEE4baseEv>
    32bc:	14000017 	ldw	r16,0(r2)
    32c0:	e13fff17 	ldw	r4,-4(fp)
    32c4:	0002dc80 	call	2dc8 <_ZNK9__gnu_cxx17__normal_iteratorIP6MyRectSt6vectorIS1_SaIS1_EEE4baseEv>
    32c8:	10800017 	ldw	r2,0(r2)
    32cc:	8084c03a 	cmpne	r2,r16,r2
    32d0:	e037883a 	mov	sp,fp
    32d4:	dfc00217 	ldw	ra,8(sp)
    32d8:	df000117 	ldw	fp,4(sp)
    32dc:	dc000017 	ldw	r16,0(sp)
    32e0:	dec00304 	addi	sp,sp,12
    32e4:	f800283a 	ret

000032e8 <_ZSt24__uninitialized_copy_auxIN9__gnu_cxx17__normal_iteratorIP6MyRectSt6vectorIS2_SaIS2_EEEES7_ET0_T_S9_S8_12__false_type>:

  template<typename _InputIterator, typename _ForwardIterator>
    inline _ForwardIterator
    __uninitialized_copy_aux(_InputIterator __first, _InputIterator __last,
			     _ForwardIterator __result,
			     __false_type)
    32e8:	defff804 	addi	sp,sp,-32
    32ec:	dfc00715 	stw	ra,28(sp)
    32f0:	df000615 	stw	fp,24(sp)
    32f4:	dc000515 	stw	r16,20(sp)
    32f8:	df000504 	addi	fp,sp,20
    32fc:	e13ffc15 	stw	r4,-16(fp)
    3300:	e17ffd15 	stw	r5,-12(fp)
    3304:	e1bffe15 	stw	r6,-8(fp)
    3308:	e1ffff05 	stb	r7,-4(fp)
    {
      _ForwardIterator __cur = __result;
    330c:	e0bffe17 	ldw	r2,-8(fp)
    3310:	e0bffb15 	stw	r2,-20(fp)
      try
	{
	  for (; __first != __last; ++__first, ++__cur)
    3314:	00000c06 	br	3348 <_ZSt24__uninitialized_copy_auxIN9__gnu_cxx17__normal_iteratorIP6MyRectSt6vectorIS2_SaIS2_EEEES7_ET0_T_S9_S8_12__false_type+0x60>
	    std::_Construct(&*__cur, *__first);
    3318:	e13ffb04 	addi	r4,fp,-20
    331c:	0002d780 	call	2d78 <_ZNK9__gnu_cxx17__normal_iteratorIP6MyRectSt6vectorIS1_SaIS1_EEEdeEv>
    3320:	1021883a 	mov	r16,r2
    3324:	e13ffc04 	addi	r4,fp,-16
    3328:	0002d780 	call	2d78 <_ZNK9__gnu_cxx17__normal_iteratorIP6MyRectSt6vectorIS1_SaIS1_EEEdeEv>
    332c:	100b883a 	mov	r5,r2
    3330:	8009883a 	mov	r4,r16
    3334:	00030680 	call	3068 <_ZSt10_ConstructI6MyRectS0_EvPT_RKT0_>
			     __false_type)
    {
      _ForwardIterator __cur = __result;
      try
	{
	  for (; __first != __last; ++__first, ++__cur)
    3338:	e13ffc04 	addi	r4,fp,-16
    333c:	0002dec0 	call	2dec <_ZN9__gnu_cxx17__normal_iteratorIP6MyRectSt6vectorIS1_SaIS1_EEEppEv>
    3340:	e13ffb04 	addi	r4,fp,-20
    3344:	0002dec0 	call	2dec <_ZN9__gnu_cxx17__normal_iteratorIP6MyRectSt6vectorIS1_SaIS1_EEEppEv>
    3348:	e13ffc04 	addi	r4,fp,-16
    334c:	e17ffd04 	addi	r5,fp,-12
    3350:	00032980 	call	3298 <_ZN9__gnu_cxxneIP6MyRectSt6vectorIS1_SaIS1_EEEEbRKNS_17__normal_iteratorIT_T0_EESB_>
    3354:	10803fcc 	andi	r2,r2,255
    3358:	1004c03a 	cmpne	r2,r2,zero
    335c:	103fee1e 	bne	r2,zero,3318 <_ZSt24__uninitialized_copy_auxIN9__gnu_cxx17__normal_iteratorIP6MyRectSt6vectorIS2_SaIS2_EEEES7_ET0_T_S9_S8_12__false_type+0x30>
	    std::_Construct(&*__cur, *__first);
	  return __cur;
    3360:	e0bffb17 	ldw	r2,-20(fp)
	}
      catch(...)
	{
	  std::_Destroy(__result, __cur);
	  __throw_exception_again;
    3364:	e037883a 	mov	sp,fp
    3368:	dfc00217 	ldw	ra,8(sp)
    336c:	df000117 	ldw	fp,4(sp)
    3370:	dc000017 	ldw	r16,0(sp)
    3374:	dec00304 	addi	sp,sp,12
    3378:	f800283a 	ret

0000337c <_ZSt18uninitialized_copyIN9__gnu_cxx17__normal_iteratorIP6MyRectSt6vectorIS2_SaIS2_EEEES7_ET0_T_S9_S8_>:
   *  Like copy(), but does not require an initialized output range.
  */
  template<typename _InputIterator, typename _ForwardIterator>
    inline _ForwardIterator
    uninitialized_copy(_InputIterator __first, _InputIterator __last,
		       _ForwardIterator __result)
    337c:	defffa04 	addi	sp,sp,-24
    3380:	dfc00515 	stw	ra,20(sp)
    3384:	df000415 	stw	fp,16(sp)
    3388:	df000404 	addi	fp,sp,16
    338c:	e13ffc15 	stw	r4,-16(fp)
    3390:	e17ffd15 	stw	r5,-12(fp)
    3394:	e1bffe15 	stw	r6,-8(fp)
    {
      typedef typename iterator_traits<_ForwardIterator>::value_type _ValueType;
      typedef typename std::__is_scalar<_ValueType>::__type _Is_POD;
      return std::__uninitialized_copy_aux(__first, __last, __result,
					   _Is_POD());
    3398:	e13ffc17 	ldw	r4,-16(fp)
    339c:	e17ffd17 	ldw	r5,-12(fp)
    33a0:	e1bffe17 	ldw	r6,-8(fp)
    33a4:	e1ffff03 	ldbu	r7,-4(fp)
    33a8:	00032e80 	call	32e8 <_ZSt24__uninitialized_copy_auxIN9__gnu_cxx17__normal_iteratorIP6MyRectSt6vectorIS2_SaIS2_EEEES7_ET0_T_S9_S8_12__false_type>
    33ac:	e037883a 	mov	sp,fp
    33b0:	dfc00117 	ldw	ra,4(sp)
    33b4:	df000017 	ldw	fp,0(sp)
    33b8:	dec00204 	addi	sp,sp,8
    33bc:	f800283a 	ret

000033c0 <_ZSt22__uninitialized_copy_aIN9__gnu_cxx17__normal_iteratorIP6MyRectSt6vectorIS2_SaIS2_EEEES7_S2_ET0_T_S9_S8_SaIT1_E>:

  template<typename _InputIterator, typename _ForwardIterator, typename _Tp>
    inline _ForwardIterator
    __uninitialized_copy_a(_InputIterator __first, _InputIterator __last,
			   _ForwardIterator __result,
			   allocator<_Tp>)
    33c0:	defffa04 	addi	sp,sp,-24
    33c4:	dfc00515 	stw	ra,20(sp)
    33c8:	df000415 	stw	fp,16(sp)
    33cc:	df000404 	addi	fp,sp,16
    33d0:	e13ffc15 	stw	r4,-16(fp)
    33d4:	e17ffd15 	stw	r5,-12(fp)
    33d8:	e1bffe15 	stw	r6,-8(fp)
    33dc:	e1ffff15 	stw	r7,-4(fp)
    {
      return std::uninitialized_copy(__first, __last, __result);
    33e0:	e13ffc17 	ldw	r4,-16(fp)
    33e4:	e17ffd17 	ldw	r5,-12(fp)
    33e8:	e1bffe17 	ldw	r6,-8(fp)
    33ec:	000337c0 	call	337c <_ZSt18uninitialized_copyIN9__gnu_cxx17__normal_iteratorIP6MyRectSt6vectorIS2_SaIS2_EEEES7_ET0_T_S9_S8_>
    33f0:	e037883a 	mov	sp,fp
    33f4:	dfc00117 	ldw	ra,4(sp)
    33f8:	df000017 	ldw	fp,0(sp)
    33fc:	dec00204 	addi	sp,sp,8
    3400:	f800283a 	ret

00003404 <_ZSt13__destroy_auxIN9__gnu_cxx17__normal_iteratorIP6MyRectSt6vectorIS2_SaIS2_EEEEEvT_S8_12__false_type>:
   * @endif
   */
  template<typename _ForwardIterator>
    inline void
    __destroy_aux(_ForwardIterator __first, _ForwardIterator __last,
		  __false_type)
    3404:	defffb04 	addi	sp,sp,-20
    3408:	dfc00415 	stw	ra,16(sp)
    340c:	df000315 	stw	fp,12(sp)
    3410:	df000304 	addi	fp,sp,12
    3414:	e13ffd15 	stw	r4,-12(fp)
    3418:	e17ffe15 	stw	r5,-8(fp)
    341c:	e1bfff05 	stb	r6,-4(fp)
    {
      for (; __first != __last; ++__first)
    3420:	00000606 	br	343c <_ZSt13__destroy_auxIN9__gnu_cxx17__normal_iteratorIP6MyRectSt6vectorIS2_SaIS2_EEEEEvT_S8_12__false_type+0x38>
	std::_Destroy(&*__first);
    3424:	e13ffd04 	addi	r4,fp,-12
    3428:	0002d780 	call	2d78 <_ZNK9__gnu_cxx17__normal_iteratorIP6MyRectSt6vectorIS1_SaIS1_EEEdeEv>
    342c:	1009883a 	mov	r4,r2
    3430:	0002f440 	call	2f44 <_ZSt8_DestroyI6MyRectEvPT_>
  template<typename _ForwardIterator>
    inline void
    __destroy_aux(_ForwardIterator __first, _ForwardIterator __last,
		  __false_type)
    {
      for (; __first != __last; ++__first)
    3434:	e13ffd04 	addi	r4,fp,-12
    3438:	0002dec0 	call	2dec <_ZN9__gnu_cxx17__normal_iteratorIP6MyRectSt6vectorIS1_SaIS1_EEEppEv>
    343c:	e17ffe04 	addi	r5,fp,-8
    3440:	e13ffd04 	addi	r4,fp,-12
    3444:	00032980 	call	3298 <_ZN9__gnu_cxxneIP6MyRectSt6vectorIS1_SaIS1_EEEEbRKNS_17__normal_iteratorIT_T0_EESB_>
    3448:	10803fcc 	andi	r2,r2,255
    344c:	1004c03a 	cmpne	r2,r2,zero
    3450:	103ff41e 	bne	r2,zero,3424 <_ZSt13__destroy_auxIN9__gnu_cxx17__normal_iteratorIP6MyRectSt6vectorIS2_SaIS2_EEEEEvT_S8_12__false_type+0x20>
	std::_Destroy(&*__first);
    3454:	e037883a 	mov	sp,fp
    3458:	dfc00117 	ldw	ra,4(sp)
    345c:	df000017 	ldw	fp,0(sp)
    3460:	dec00204 	addi	sp,sp,8
    3464:	f800283a 	ret

00003468 <_ZSt8_DestroyIN9__gnu_cxx17__normal_iteratorIP6MyRectSt6vectorIS2_SaIS2_EEEEEvT_S8_>:
   * away, otherwise the objects' destructors must be invoked.
   * @endif
   */
  template<typename _ForwardIterator>
    inline void
    _Destroy(_ForwardIterator __first, _ForwardIterator __last)
    3468:	defffb04 	addi	sp,sp,-20
    346c:	dfc00415 	stw	ra,16(sp)
    3470:	df000315 	stw	fp,12(sp)
    3474:	df000304 	addi	fp,sp,12
    3478:	e13ffd15 	stw	r4,-12(fp)
    347c:	e17ffe15 	stw	r5,-8(fp)
      typedef typename iterator_traits<_ForwardIterator>::value_type
                       _Value_type;
      typedef typename std::__is_scalar<_Value_type>::__type
	               _Has_trivial_destructor;

      std::__destroy_aux(__first, __last, _Has_trivial_destructor());
    3480:	e13ffd17 	ldw	r4,-12(fp)
    3484:	e17ffe17 	ldw	r5,-8(fp)
    3488:	e1bfff03 	ldbu	r6,-4(fp)
    348c:	00034040 	call	3404 <_ZSt13__destroy_auxIN9__gnu_cxx17__normal_iteratorIP6MyRectSt6vectorIS2_SaIS2_EEEEEvT_S8_12__false_type>
    3490:	e037883a 	mov	sp,fp
    3494:	dfc00117 	ldw	ra,4(sp)
    3498:	df000017 	ldw	fp,0(sp)
    349c:	dec00204 	addi	sp,sp,8
    34a0:	f800283a 	ret

000034a4 <_ZSt8_DestroyIN9__gnu_cxx17__normal_iteratorIP6MyRectSt6vectorIS2_SaIS2_EEEES2_EvT_S8_SaIT0_E>:
    }

  template<typename _ForwardIterator, typename _Tp>
    inline void
    _Destroy(_ForwardIterator __first, _ForwardIterator __last,
	     allocator<_Tp>)
    34a4:	defffb04 	addi	sp,sp,-20
    34a8:	dfc00415 	stw	ra,16(sp)
    34ac:	df000315 	stw	fp,12(sp)
    34b0:	df000304 	addi	fp,sp,12
    34b4:	e13ffd15 	stw	r4,-12(fp)
    34b8:	e17ffe15 	stw	r5,-8(fp)
    34bc:	e1bfff15 	stw	r6,-4(fp)
    {
      _Destroy(__first, __last);
    34c0:	e13ffd17 	ldw	r4,-12(fp)
    34c4:	e17ffe17 	ldw	r5,-8(fp)
    34c8:	00034680 	call	3468 <_ZSt8_DestroyIN9__gnu_cxx17__normal_iteratorIP6MyRectSt6vectorIS2_SaIS2_EEEEEvT_S8_>
    34cc:	e037883a 	mov	sp,fp
    34d0:	dfc00117 	ldw	ra,4(sp)
    34d4:	df000017 	ldw	fp,0(sp)
    34d8:	dec00204 	addi	sp,sp,8
    34dc:	f800283a 	ret

000034e0 <_ZN9__gnu_cxx13new_allocatorI6MyRectE8allocateEmPKv>:
      address(const_reference __x) const { return &__x; }

      // NB: __n is permitted to be 0.  The C++ standard says nothing
      // about what the return value is when __n == 0.
      pointer
      allocate(size_type __n, const void* = 0)
    34e0:	defffb04 	addi	sp,sp,-20
    34e4:	dfc00415 	stw	ra,16(sp)
    34e8:	df000315 	stw	fp,12(sp)
    34ec:	df000304 	addi	fp,sp,12
    34f0:	e13ffd15 	stw	r4,-12(fp)
    34f4:	e17ffe15 	stw	r5,-8(fp)
    34f8:	e1bfff15 	stw	r6,-4(fp)
      { 
	if (__builtin_expect(__n > this->max_size(), false))
    34fc:	e13ffd17 	ldw	r4,-12(fp)
    3500:	00030400 	call	3040 <_ZNK9__gnu_cxx13new_allocatorI6MyRectE8max_sizeEv>
    3504:	1007883a 	mov	r3,r2
    3508:	e0bffe17 	ldw	r2,-8(fp)
    350c:	1885803a 	cmpltu	r2,r3,r2
    3510:	1004c03a 	cmpne	r2,r2,zero
    3514:	10803fcc 	andi	r2,r2,255
    3518:	1005003a 	cmpeq	r2,r2,zero
    351c:	1000011e 	bne	r2,zero,3524 <_ZN9__gnu_cxx13new_allocatorI6MyRectE8allocateEmPKv+0x44>
	  std::__throw_bad_alloc();
    3520:	0007a480 	call	7a48 <_ZSt17__throw_bad_allocv>

	return static_cast<_Tp*>(::operator new(__n * sizeof(_Tp)));
    3524:	e0bffe17 	ldw	r2,-8(fp)
    3528:	1008913a 	slli	r4,r2,4
    352c:	000ed840 	call	ed84 <_Znwm>
    3530:	e037883a 	mov	sp,fp
    3534:	dfc00117 	ldw	ra,4(sp)
    3538:	df000017 	ldw	fp,0(sp)
    353c:	dec00204 	addi	sp,sp,8
    3540:	f800283a 	ret

00003544 <_ZNSt12_Vector_baseI6MyRectSaIS0_EE11_M_allocateEm>:

    public:
      _Vector_impl _M_impl;

      _Tp*
      _M_allocate(size_t __n)
    3544:	defffc04 	addi	sp,sp,-16
    3548:	dfc00315 	stw	ra,12(sp)
    354c:	df000215 	stw	fp,8(sp)
    3550:	df000204 	addi	fp,sp,8
    3554:	e13ffe15 	stw	r4,-8(fp)
    3558:	e17fff15 	stw	r5,-4(fp)
      { return _M_impl.allocate(__n); }
    355c:	e0bffe17 	ldw	r2,-8(fp)
    3560:	1009883a 	mov	r4,r2
    3564:	e17fff17 	ldw	r5,-4(fp)
    3568:	000d883a 	mov	r6,zero
    356c:	00034e00 	call	34e0 <_ZN9__gnu_cxx13new_allocatorI6MyRectE8allocateEmPKv>
    3570:	e037883a 	mov	sp,fp
    3574:	dfc00117 	ldw	ra,4(sp)
    3578:	df000017 	ldw	fp,0(sp)
    357c:	dec00204 	addi	sp,sp,8
    3580:	f800283a 	ret

00003584 <_ZN9__gnu_cxx13new_allocatorI6MyRectE10deallocateEPS1_m>:
      }

      // __p is not permitted to be a null pointer.
      void
      deallocate(pointer __p, size_type)
    3584:	defffb04 	addi	sp,sp,-20
    3588:	dfc00415 	stw	ra,16(sp)
    358c:	df000315 	stw	fp,12(sp)
    3590:	df000304 	addi	fp,sp,12
    3594:	e13ffd15 	stw	r4,-12(fp)
    3598:	e17ffe15 	stw	r5,-8(fp)
    359c:	e1bfff15 	stw	r6,-4(fp)
      { ::operator delete(__p); }
    35a0:	e13ffe17 	ldw	r4,-8(fp)
    35a4:	000de540 	call	de54 <_ZdlPv>
    35a8:	e037883a 	mov	sp,fp
    35ac:	dfc00117 	ldw	ra,4(sp)
    35b0:	df000017 	ldw	fp,0(sp)
    35b4:	dec00204 	addi	sp,sp,8
    35b8:	f800283a 	ret

000035bc <_ZNSt12_Vector_baseI6MyRectSaIS0_EE13_M_deallocateEPS0_m>:

      void
      _M_deallocate(_Tp* __p, size_t __n)
    35bc:	defffb04 	addi	sp,sp,-20
    35c0:	dfc00415 	stw	ra,16(sp)
    35c4:	df000315 	stw	fp,12(sp)
    35c8:	df000304 	addi	fp,sp,12
    35cc:	e13ffd15 	stw	r4,-12(fp)
    35d0:	e17ffe15 	stw	r5,-8(fp)
    35d4:	e1bfff15 	stw	r6,-4(fp)
      {
	if (__p)
    35d8:	e0bffe17 	ldw	r2,-8(fp)
    35dc:	1005003a 	cmpeq	r2,r2,zero
    35e0:	1000051e 	bne	r2,zero,35f8 <_ZNSt12_Vector_baseI6MyRectSaIS0_EE13_M_deallocateEPS0_m+0x3c>
	  _M_impl.deallocate(__p, __n);
    35e4:	e0bffd17 	ldw	r2,-12(fp)
    35e8:	1009883a 	mov	r4,r2
    35ec:	e17ffe17 	ldw	r5,-8(fp)
    35f0:	e1bfff17 	ldw	r6,-4(fp)
    35f4:	00035840 	call	3584 <_ZN9__gnu_cxx13new_allocatorI6MyRectE10deallocateEPS1_m>
    35f8:	e037883a 	mov	sp,fp
    35fc:	dfc00117 	ldw	ra,4(sp)
    3600:	df000017 	ldw	fp,0(sp)
    3604:	dec00204 	addi	sp,sp,8
    3608:	f800283a 	ret

0000360c <_ZNSt6vectorI6MyRectSaIS0_EE13_M_insert_auxEN9__gnu_cxx17__normal_iteratorIPS0_S2_EERKS0_>:
      }

  template<typename _Tp, typename _Alloc>
    void
    vector<_Tp, _Alloc>::
    _M_insert_aux(iterator __position, const _Tp& __x)
    360c:	deffe704 	addi	sp,sp,-100
    3610:	dfc01815 	stw	ra,96(sp)
    3614:	df001715 	stw	fp,92(sp)
    3618:	dc401615 	stw	r17,88(sp)
    361c:	dc001515 	stw	r16,84(sp)
    3620:	df001504 	addi	fp,sp,84
    3624:	e13ffc15 	stw	r4,-16(fp)
    3628:	e17ffd15 	stw	r5,-12(fp)
    362c:	e1bffe15 	stw	r6,-8(fp)
    {
      if (this->_M_impl._M_finish != this->_M_impl._M_end_of_storage)
    3630:	e0bffc17 	ldw	r2,-16(fp)
    3634:	10c00117 	ldw	r3,4(r2)
    3638:	e0bffc17 	ldw	r2,-16(fp)
    363c:	10800217 	ldw	r2,8(r2)
    3640:	18803426 	beq	r3,r2,3714 <_ZNSt6vectorI6MyRectSaIS0_EE13_M_insert_auxEN9__gnu_cxx17__normal_iteratorIPS0_S2_EERKS0_+0x108>
	{
	  this->_M_impl.construct(this->_M_impl._M_finish,
    3644:	e0bffc17 	ldw	r2,-16(fp)
    3648:	1009883a 	mov	r4,r2
    364c:	e0bffc17 	ldw	r2,-16(fp)
    3650:	11400117 	ldw	r5,4(r2)
    3654:	e0bffc17 	ldw	r2,-16(fp)
    3658:	10800117 	ldw	r2,4(r2)
    365c:	11bffc04 	addi	r6,r2,-16
    3660:	0002b0c0 	call	2b0c <_ZN9__gnu_cxx13new_allocatorI6MyRectE9constructEPS1_RKS1_>
				  *(this->_M_impl._M_finish - 1));
	  ++this->_M_impl._M_finish;
    3664:	e0bffc17 	ldw	r2,-16(fp)
    3668:	10800117 	ldw	r2,4(r2)
    366c:	10c00404 	addi	r3,r2,16
    3670:	e0bffc17 	ldw	r2,-16(fp)
    3674:	10c00115 	stw	r3,4(r2)
	  _Tp __x_copy = __x;
    3678:	e0fffe17 	ldw	r3,-8(fp)
    367c:	18800017 	ldw	r2,0(r3)
    3680:	e0bff615 	stw	r2,-40(fp)
    3684:	18800117 	ldw	r2,4(r3)
    3688:	e0bff715 	stw	r2,-36(fp)
    368c:	18800217 	ldw	r2,8(r3)
    3690:	e0bff815 	stw	r2,-32(fp)
    3694:	18800317 	ldw	r2,12(r3)
    3698:	e0bff915 	stw	r2,-28(fp)
	  std::copy_backward(__position,
    369c:	e0bffc17 	ldw	r2,-16(fp)
    36a0:	10800117 	ldw	r2,4(r2)
    36a4:	10bff804 	addi	r2,r2,-32
    36a8:	e0bff415 	stw	r2,-48(fp)
    36ac:	e13ff504 	addi	r4,fp,-44
    36b0:	e17ff404 	addi	r5,fp,-48
    36b4:	0002d080 	call	2d08 <_ZN9__gnu_cxx17__normal_iteratorIP6MyRectSt6vectorIS1_SaIS1_EEEC1ERKS2_>
    36b8:	e0bffc17 	ldw	r2,-16(fp)
    36bc:	10800117 	ldw	r2,4(r2)
    36c0:	10bffc04 	addi	r2,r2,-16
    36c4:	e0bff215 	stw	r2,-56(fp)
    36c8:	e13ff304 	addi	r4,fp,-52
    36cc:	e17ff204 	addi	r5,fp,-56
    36d0:	0002d080 	call	2d08 <_ZN9__gnu_cxx17__normal_iteratorIP6MyRectSt6vectorIS1_SaIS1_EEEC1ERKS2_>
    36d4:	e13ffd17 	ldw	r4,-12(fp)
    36d8:	e17ff517 	ldw	r5,-44(fp)
    36dc:	e1bff317 	ldw	r6,-52(fp)
    36e0:	00032480 	call	3248 <_ZSt13copy_backwardIN9__gnu_cxx17__normal_iteratorIP6MyRectSt6vectorIS2_SaIS2_EEEES7_ET0_T_S9_S8_>
			     iterator(this->_M_impl._M_finish-2),
			     iterator(this->_M_impl._M_finish-1));
	  *__position = __x_copy;
    36e4:	e13ffd04 	addi	r4,fp,-12
    36e8:	0002d780 	call	2d78 <_ZNK9__gnu_cxx17__normal_iteratorIP6MyRectSt6vectorIS1_SaIS1_EEEdeEv>
    36ec:	1007883a 	mov	r3,r2
    36f0:	e0bff617 	ldw	r2,-40(fp)
    36f4:	18800015 	stw	r2,0(r3)
    36f8:	e0bff717 	ldw	r2,-36(fp)
    36fc:	18800115 	stw	r2,4(r3)
    3700:	e0bff817 	ldw	r2,-32(fp)
    3704:	18800215 	stw	r2,8(r3)
    3708:	e0bff917 	ldw	r2,-28(fp)
    370c:	18800315 	stw	r2,12(r3)
    3710:	00008206 	br	391c <_ZNSt6vectorI6MyRectSaIS0_EE13_M_insert_auxEN9__gnu_cxx17__normal_iteratorIPS0_S2_EERKS0_+0x310>
	}
      else
	{
	  const size_type __old_size = size();
    3714:	e13ffc17 	ldw	r4,-16(fp)
    3718:	0002ed80 	call	2ed8 <_ZNKSt6vectorI6MyRectSaIS0_EE4sizeEv>
    371c:	e0bfec15 	stw	r2,-80(fp)
	  if (__old_size == this->max_size())
    3720:	e13ffc17 	ldw	r4,-16(fp)
    3724:	0002da00 	call	2da0 <_ZNKSt6vectorI6MyRectSaIS0_EE8max_sizeEv>
    3728:	1007883a 	mov	r3,r2
    372c:	e0bfec17 	ldw	r2,-80(fp)
    3730:	1885003a 	cmpeq	r2,r3,r2
    3734:	10803fcc 	andi	r2,r2,255
    3738:	1005003a 	cmpeq	r2,r2,zero
    373c:	1000031e 	bne	r2,zero,374c <_ZNSt6vectorI6MyRectSaIS0_EE13_M_insert_auxEN9__gnu_cxx17__normal_iteratorIPS0_S2_EERKS0_+0x140>
	    __throw_length_error(__N("vector::_M_insert_aux"));
    3740:	010000b4 	movhi	r4,2
    3744:	2139a804 	addi	r4,r4,-6496
    3748:	00088380 	call	8838 <_ZSt20__throw_length_errorPKc>

	  // When sizeof(value_type) == 1 and __old_size > size_type(-1)/2
	  // __len overflows: if we don't notice and _M_allocate doesn't
	  // throw we crash badly later.
	  size_type __len = __old_size != 0 ? 2 * __old_size : 1;	  
    374c:	e0bfec17 	ldw	r2,-80(fp)
    3750:	1005003a 	cmpeq	r2,r2,zero
    3754:	1000041e 	bne	r2,zero,3768 <_ZNSt6vectorI6MyRectSaIS0_EE13_M_insert_auxEN9__gnu_cxx17__normal_iteratorIPS0_S2_EERKS0_+0x15c>
    3758:	e0bfec17 	ldw	r2,-80(fp)
    375c:	1085883a 	add	r2,r2,r2
    3760:	e0bfff15 	stw	r2,-4(fp)
    3764:	00000206 	br	3770 <_ZNSt6vectorI6MyRectSaIS0_EE13_M_insert_auxEN9__gnu_cxx17__normal_iteratorIPS0_S2_EERKS0_+0x164>
    3768:	00800044 	movi	r2,1
    376c:	e0bfff15 	stw	r2,-4(fp)
    3770:	e0bfff17 	ldw	r2,-4(fp)
    3774:	e0bfeb15 	stw	r2,-84(fp)
	  if (__len < __old_size)
    3778:	e0ffeb17 	ldw	r3,-84(fp)
    377c:	e0bfec17 	ldw	r2,-80(fp)
    3780:	1880032e 	bgeu	r3,r2,3790 <_ZNSt6vectorI6MyRectSaIS0_EE13_M_insert_auxEN9__gnu_cxx17__normal_iteratorIPS0_S2_EERKS0_+0x184>
	    __len = this->max_size();
    3784:	e13ffc17 	ldw	r4,-16(fp)
    3788:	0002da00 	call	2da0 <_ZNKSt6vectorI6MyRectSaIS0_EE8max_sizeEv>
    378c:	e0bfeb15 	stw	r2,-84(fp)

	  iterator __new_start(this->_M_allocate(__len));
    3790:	e13ffc17 	ldw	r4,-16(fp)
    3794:	e17feb17 	ldw	r5,-84(fp)
